
obj/bigint_operations.o:     file format elf64-x86-64


Disassembly of section .text:

0000000000000000 <__montgomery_init>:
       0:	48 8b 05 00 00 00 00 	mov    0x0(%rip),%rax        # 7 <__montgomery_init+0x7>
       7:	53                   	push   %rbx
       8:	be 00 00 00 00       	mov    $0x0,%esi
       d:	48 89 fb             	mov    %rdi,%rbx
      10:	bf 42 00 00 00       	mov    $0x42,%edi
      15:	48 05 e0 29 00 00    	add    $0x29e0,%rax
      1b:	48 89 05 00 00 00 00 	mov    %rax,0x0(%rip)        # 22 <__montgomery_init+0x22>
      22:	e8 00 00 00 00       	callq  27 <__montgomery_init+0x27>
      27:	48 89 de             	mov    %rbx,%rsi
      2a:	48 89 c7             	mov    %rax,%rdi
      2d:	e8 00 00 00 00       	callq  32 <__montgomery_init+0x32>
      32:	85 c0                	test   %eax,%eax
      34:	0f 85 d6 00 00 00    	jne    110 <__montgomery_init+0x110>
      3a:	be 00 00 00 00       	mov    $0x0,%esi
      3f:	bf 42 00 00 00       	mov    $0x42,%edi
      44:	e8 00 00 00 00       	callq  49 <__montgomery_init+0x49>
      49:	48 89 de             	mov    %rbx,%rsi
      4c:	48 89 c7             	mov    %rax,%rdi
      4f:	e8 00 00 00 00       	callq  54 <__montgomery_init+0x54>
      54:	85 c0                	test   %eax,%eax
      56:	0f 85 8c 00 00 00    	jne    e8 <__montgomery_init+0xe8>
      5c:	be 00 00 00 00       	mov    $0x0,%esi
      61:	bf 42 00 00 00       	mov    $0x42,%edi
      66:	e8 00 00 00 00       	callq  6b <__montgomery_init+0x6b>
      6b:	48 89 de             	mov    %rbx,%rsi
      6e:	48 89 c7             	mov    %rax,%rdi
      71:	e8 00 00 00 00       	callq  76 <__montgomery_init+0x76>
      76:	85 c0                	test   %eax,%eax
      78:	0f 85 f2 00 00 00    	jne    170 <__montgomery_init+0x170>
      7e:	be 00 00 00 00       	mov    $0x0,%esi
      83:	bf 42 00 00 00       	mov    $0x42,%edi
      88:	e8 00 00 00 00       	callq  8d <__montgomery_init+0x8d>
      8d:	48 89 de             	mov    %rbx,%rsi
      90:	48 89 c7             	mov    %rax,%rdi
      93:	e8 00 00 00 00       	callq  98 <__montgomery_init+0x98>
      98:	85 c0                	test   %eax,%eax
      9a:	0f 85 a0 00 00 00    	jne    140 <__montgomery_init+0x140>
      a0:	be 00 00 00 00       	mov    $0x0,%esi
      a5:	bf 42 00 00 00       	mov    $0x42,%edi
      aa:	e8 00 00 00 00       	callq  af <__montgomery_init+0xaf>
      af:	48 89 de             	mov    %rbx,%rsi
      b2:	48 89 c7             	mov    %rax,%rdi
      b5:	e8 00 00 00 00       	callq  ba <__montgomery_init+0xba>
      ba:	85 c0                	test   %eax,%eax
      bc:	74 21                	je     df <__montgomery_init+0xdf>
      be:	be 00 00 00 00       	mov    $0x0,%esi
      c3:	bf 43 00 00 00       	mov    $0x43,%edi
      c8:	e8 00 00 00 00       	callq  cd <__montgomery_init+0xcd>
      cd:	48 c7 05 00 00 00 00 	movq   $0x1,0x0(%rip)        # d8 <__montgomery_init+0xd8>
      d4:	01 00 00 00 
      d8:	48 89 05 00 00 00 00 	mov    %rax,0x0(%rip)        # df <__montgomery_init+0xdf>
      df:	5b                   	pop    %rbx
      e0:	c3                   	retq   
      e1:	0f 1f 80 00 00 00 00 	nopl   0x0(%rax)
      e8:	be 00 00 00 00       	mov    $0x0,%esi
      ed:	bf 43 00 00 00       	mov    $0x43,%edi
      f2:	e8 00 00 00 00       	callq  f7 <__montgomery_init+0xf7>
      f7:	48 c7 05 00 00 00 00 	movq   $0xffffffffffffffff,0x0(%rip)        # 102 <__montgomery_init+0x102>
      fe:	ff ff ff ff 
     102:	48 89 05 00 00 00 00 	mov    %rax,0x0(%rip)        # 109 <__montgomery_init+0x109>
     109:	5b                   	pop    %rbx
     10a:	c3                   	retq   
     10b:	0f 1f 44 00 00       	nopl   0x0(%rax,%rax,1)
     110:	be 00 00 00 00       	mov    $0x0,%esi
     115:	bf 43 00 00 00       	mov    $0x43,%edi
     11a:	e8 00 00 00 00       	callq  11f <__montgomery_init+0x11f>
     11f:	48 89 05 00 00 00 00 	mov    %rax,0x0(%rip)        # 126 <__montgomery_init+0x126>
     126:	48 b8 79 d8 46 74 5b 	movabs $0xf27ae55b7446d879,%rax
     12d:	e5 7a f2 
     130:	48 89 05 00 00 00 00 	mov    %rax,0x0(%rip)        # 137 <__montgomery_init+0x137>
     137:	5b                   	pop    %rbx
     138:	c3                   	retq   
     139:	0f 1f 80 00 00 00 00 	nopl   0x0(%rax)
     140:	be 00 00 00 00       	mov    $0x0,%esi
     145:	bf 43 00 00 00       	mov    $0x43,%edi
     14a:	e8 00 00 00 00       	callq  14f <__montgomery_init+0x14f>
     14f:	48 89 05 00 00 00 00 	mov    %rax,0x0(%rip)        # 156 <__montgomery_init+0x156>
     156:	48 b8 01 00 00 00 01 	movabs $0x100000001,%rax
     15d:	00 00 00 
     160:	48 89 05 00 00 00 00 	mov    %rax,0x0(%rip)        # 167 <__montgomery_init+0x167>
     167:	5b                   	pop    %rbx
     168:	c3                   	retq   
     169:	0f 1f 80 00 00 00 00 	nopl   0x0(%rax)
     170:	be 00 00 00 00       	mov    $0x0,%esi
     175:	bf 43 00 00 00       	mov    $0x43,%edi
     17a:	e8 00 00 00 00       	callq  17f <__montgomery_init+0x17f>
     17f:	48 89 05 00 00 00 00 	mov    %rax,0x0(%rip)        # 186 <__montgomery_init+0x186>
     186:	48 b8 31 35 25 d2 1d 	movabs $0xd838091dd2253531,%rax
     18d:	09 38 d8 
     190:	48 89 05 00 00 00 00 	mov    %rax,0x0(%rip)        # 197 <__montgomery_init+0x197>
     197:	5b                   	pop    %rbx
     198:	c3                   	retq   
     199:	0f 1f 80 00 00 00 00 	nopl   0x0(%rax)

00000000000001a0 <__montgomery_convert>:
     1a0:	41 57                	push   %r15
     1a2:	41 56                	push   %r14
     1a4:	49 89 d7             	mov    %rdx,%r15
     1a7:	41 55                	push   %r13
     1a9:	41 54                	push   %r12
     1ab:	49 89 fe             	mov    %rdi,%r14
     1ae:	55                   	push   %rbp
     1af:	53                   	push   %rbx
     1b0:	31 ed                	xor    %ebp,%ebp
     1b2:	31 db                	xor    %ebx,%ebx
     1b4:	4d 8d 6e 20          	lea    0x20(%r14),%r13
     1b8:	48 83 ec 08          	sub    $0x8,%rsp
     1bc:	e8 00 00 00 00       	callq  1c1 <__montgomery_convert+0x21>
     1c1:	b8 06 00 00 00       	mov    $0x6,%eax
     1c6:	c4 42 f9 f7 27       	shlx   %rax,(%r15),%r12
     1cb:	4d 85 e4             	test   %r12,%r12
     1ce:	74 78                	je     248 <__montgomery_convert+0xa8>
     1d0:	49 8b 3e             	mov    (%r14),%rdi
     1d3:	31 f6                	xor    %esi,%esi
     1d5:	31 c0                	xor    %eax,%eax
     1d7:	48 85 ff             	test   %rdi,%rdi
     1da:	75 07                	jne    1e3 <__montgomery_convert+0x43>
     1dc:	eb 52                	jmp    230 <__montgomery_convert+0x90>
     1de:	66 90                	xchg   %ax,%ax
     1e0:	48 89 c8             	mov    %rcx,%rax
     1e3:	49 8b 54 c6 20       	mov    0x20(%r14,%rax,8),%rdx
     1e8:	48 8d 0c 56          	lea    (%rsi,%rdx,2),%rcx
     1ec:	48 89 d6             	mov    %rdx,%rsi
     1ef:	48 c1 ee 3f          	shr    $0x3f,%rsi
     1f3:	49 89 4c c6 20       	mov    %rcx,0x20(%r14,%rax,8)
     1f8:	48 8d 48 01          	lea    0x1(%rax),%rcx
     1fc:	48 39 f9             	cmp    %rdi,%rcx
     1ff:	75 df                	jne    1e0 <__montgomery_convert+0x40>
     201:	48 85 f6             	test   %rsi,%rsi
     204:	74 2a                	je     230 <__montgomery_convert+0x90>
     206:	48 8d 50 05          	lea    0x5(%rax),%rdx
     20a:	48 83 c0 02          	add    $0x2,%rax
     20e:	31 f6                	xor    %esi,%esi
     210:	49 8d 7c c5 00       	lea    0x0(%r13,%rax,8),%rdi
     215:	49 c7 04 d6 01 00 00 	movq   $0x1,(%r14,%rdx,8)
     21c:	00 
     21d:	48 83 e2 fc          	and    $0xfffffffffffffffc,%rdx
     221:	49 89 06             	mov    %rax,(%r14)
     224:	48 29 c2             	sub    %rax,%rdx
     227:	48 c1 e2 03          	shl    $0x3,%rdx
     22b:	e8 00 00 00 00       	callq  230 <__montgomery_convert+0x90>
     230:	4c 89 fe             	mov    %r15,%rsi
     233:	4c 89 f7             	mov    %r14,%rdi
     236:	e8 00 00 00 00       	callq  23b <__montgomery_convert+0x9b>
     23b:	85 c0                	test   %eax,%eax
     23d:	75 21                	jne    260 <__montgomery_convert+0xc0>
     23f:	48 83 c5 01          	add    $0x1,%rbp
     243:	49 39 ec             	cmp    %rbp,%r12
     246:	75 88                	jne    1d0 <__montgomery_convert+0x30>
     248:	48 83 c4 08          	add    $0x8,%rsp
     24c:	5b                   	pop    %rbx
     24d:	5d                   	pop    %rbp
     24e:	41 5c                	pop    %r12
     250:	41 5d                	pop    %r13
     252:	41 5e                	pop    %r14
     254:	41 5f                	pop    %r15
     256:	c3                   	retq   
     257:	66 0f 1f 84 00 00 00 	nopw   0x0(%rax,%rax,1)
     25e:	00 00 
     260:	49 8b 36             	mov    (%r14),%rsi
     263:	48 85 f6             	test   %rsi,%rsi
     266:	74 d7                	je     23f <__montgomery_convert+0x9f>
     268:	49 8d 56 20          	lea    0x20(%r14),%rdx
     26c:	31 c9                	xor    %ecx,%ecx
     26e:	31 c0                	xor    %eax,%eax
     270:	eb 29                	jmp    29b <__montgomery_convert+0xfb>
     272:	66 0f 1f 44 00 00    	nopw   0x0(%rax,%rax,1)
     278:	84 c9                	test   %cl,%cl
     27a:	74 4c                	je     2c8 <__montgomery_convert+0x128>
     27c:	48 8b 32             	mov    (%rdx),%rsi
     27f:	80 c1 ff             	add    $0xff,%cl
     282:	48 19 de             	sbb    %rbx,%rsi
     285:	48 89 32             	mov    %rsi,(%rdx)
     288:	49 8b 36             	mov    (%r14),%rsi
     28b:	0f 92 c1             	setb   %cl
     28e:	48 83 c0 01          	add    $0x1,%rax
     292:	48 83 c2 08          	add    $0x8,%rdx
     296:	48 39 f0             	cmp    %rsi,%rax
     299:	73 2d                	jae    2c8 <__montgomery_convert+0x128>
     29b:	49 39 07             	cmp    %rax,(%r15)
     29e:	76 d8                	jbe    278 <__montgomery_convert+0xd8>
     2a0:	48 8b 32             	mov    (%rdx),%rsi
     2a3:	80 c1 ff             	add    $0xff,%cl
     2a6:	49 1b 74 c7 20       	sbb    0x20(%r15,%rax,8),%rsi
     2ab:	48 89 32             	mov    %rsi,(%rdx)
     2ae:	49 8b 36             	mov    (%r14),%rsi
     2b1:	0f 92 c1             	setb   %cl
     2b4:	48 83 c0 01          	add    $0x1,%rax
     2b8:	48 83 c2 08          	add    $0x8,%rdx
     2bc:	48 39 f0             	cmp    %rsi,%rax
     2bf:	72 da                	jb     29b <__montgomery_convert+0xfb>
     2c1:	0f 1f 80 00 00 00 00 	nopl   0x0(%rax)
     2c8:	48 83 fe 01          	cmp    $0x1,%rsi
     2cc:	0f 86 6d ff ff ff    	jbe    23f <__montgomery_convert+0x9f>
     2d2:	49 83 7c f6 18 00    	cmpq   $0x0,0x18(%r14,%rsi,8)
     2d8:	48 8d 46 ff          	lea    -0x1(%rsi),%rax
     2dc:	74 19                	je     2f7 <__montgomery_convert+0x157>
     2de:	e9 5c ff ff ff       	jmpq   23f <__montgomery_convert+0x9f>
     2e3:	0f 1f 44 00 00       	nopl   0x0(%rax,%rax,1)
     2e8:	48 8d 50 ff          	lea    -0x1(%rax),%rdx
     2ec:	49 83 7c d6 20 00    	cmpq   $0x0,0x20(%r14,%rdx,8)
     2f2:	75 15                	jne    309 <__montgomery_convert+0x169>
     2f4:	48 89 d0             	mov    %rdx,%rax
     2f7:	48 83 f8 01          	cmp    $0x1,%rax
     2fb:	75 eb                	jne    2e8 <__montgomery_convert+0x148>
     2fd:	49 c7 06 01 00 00 00 	movq   $0x1,(%r14)
     304:	e9 36 ff ff ff       	jmpq   23f <__montgomery_convert+0x9f>
     309:	49 89 06             	mov    %rax,(%r14)
     30c:	e9 2e ff ff ff       	jmpq   23f <__montgomery_convert+0x9f>
     311:	66 66 66 66 66 66 2e 	data32 data32 data32 data32 data32 nopw %cs:0x0(%rax,%rax,1)
     318:	0f 1f 84 00 00 00 00 
     31f:	00 

0000000000000320 <__montgomery_revert>:
     320:	41 57                	push   %r15
     322:	41 56                	push   %r14
     324:	49 89 d6             	mov    %rdx,%r14
     327:	41 55                	push   %r13
     329:	41 54                	push   %r12
     32b:	49 89 fd             	mov    %rdi,%r13
     32e:	55                   	push   %rbp
     32f:	53                   	push   %rbx
     330:	48 83 ec 08          	sub    $0x8,%rsp
     334:	e8 00 00 00 00       	callq  339 <__montgomery_revert+0x19>
     339:	b8 06 00 00 00       	mov    $0x6,%eax
     33e:	c4 c2 f9 f7 2e       	shlx   %rax,(%r14),%rbp
     343:	48 85 ed             	test   %rbp,%rbp
     346:	74 72                	je     3ba <__montgomery_revert+0x9a>
     348:	4d 8d 65 20          	lea    0x20(%r13),%r12
     34c:	45 31 ff             	xor    %r15d,%r15d
     34f:	31 db                	xor    %ebx,%ebx
     351:	0f 1f 80 00 00 00 00 	nopl   0x0(%rax)
     358:	4c 89 ef             	mov    %r13,%rdi
     35b:	e8 00 00 00 00       	callq  360 <__montgomery_revert+0x40>
     360:	85 c0                	test   %eax,%eax
     362:	49 8b 7d 00          	mov    0x0(%r13),%rdi
     366:	74 68                	je     3d0 <__montgomery_revert+0xb0>
     368:	31 f6                	xor    %esi,%esi
     36a:	48 85 ff             	test   %rdi,%rdi
     36d:	48 89 f8             	mov    %rdi,%rax
     370:	74 3f                	je     3b1 <__montgomery_revert+0x91>
     372:	66 0f 1f 44 00 00    	nopw   0x0(%rax,%rax,1)
     378:	48 83 e8 01          	sub    $0x1,%rax
     37c:	49 8b 4c c5 20       	mov    0x20(%r13,%rax,8),%rcx
     381:	48 89 ca             	mov    %rcx,%rdx
     384:	48 d1 ea             	shr    %rdx
     387:	48 01 f2             	add    %rsi,%rdx
     38a:	48 89 ce             	mov    %rcx,%rsi
     38d:	48 c1 e6 3f          	shl    $0x3f,%rsi
     391:	48 85 c0             	test   %rax,%rax
     394:	49 89 54 c5 20       	mov    %rdx,0x20(%r13,%rax,8)
     399:	75 dd                	jne    378 <__montgomery_revert+0x58>
     39b:	49 83 7c fd 18 00    	cmpq   $0x0,0x18(%r13,%rdi,8)
     3a1:	48 8d 47 ff          	lea    -0x1(%rdi),%rax
     3a5:	75 0a                	jne    3b1 <__montgomery_revert+0x91>
     3a7:	48 83 ff 01          	cmp    $0x1,%rdi
     3ab:	76 04                	jbe    3b1 <__montgomery_revert+0x91>
     3ad:	49 89 45 00          	mov    %rax,0x0(%r13)
     3b1:	49 83 c7 01          	add    $0x1,%r15
     3b5:	4c 39 fd             	cmp    %r15,%rbp
     3b8:	75 9e                	jne    358 <__montgomery_revert+0x38>
     3ba:	48 83 c4 08          	add    $0x8,%rsp
     3be:	5b                   	pop    %rbx
     3bf:	5d                   	pop    %rbp
     3c0:	41 5c                	pop    %r12
     3c2:	41 5d                	pop    %r13
     3c4:	41 5e                	pop    %r14
     3c6:	41 5f                	pop    %r15
     3c8:	c3                   	retq   
     3c9:	0f 1f 80 00 00 00 00 	nopl   0x0(%rax)
     3d0:	49 8b 06             	mov    (%r14),%rax
     3d3:	48 39 c7             	cmp    %rax,%rdi
     3d6:	0f 82 ac 00 00 00    	jb     488 <__montgomery_revert+0x168>
     3dc:	31 f6                	xor    %esi,%esi
     3de:	31 c0                	xor    %eax,%eax
     3e0:	48 85 ff             	test   %rdi,%rdi
     3e3:	49 8d 4d 20          	lea    0x20(%r13),%rcx
     3e7:	75 2e                	jne    417 <__montgomery_revert+0xf7>
     3e9:	eb c6                	jmp    3b1 <__montgomery_revert+0x91>
     3eb:	0f 1f 44 00 00       	nopl   0x0(%rax,%rax,1)
     3f0:	40 84 f6             	test   %sil,%sil
     3f3:	74 59                	je     44e <__montgomery_revert+0x12e>
     3f5:	48 8b 11             	mov    (%rcx),%rdx
     3f8:	40 80 c6 ff          	add    $0xff,%sil
     3fc:	48 11 da             	adc    %rbx,%rdx
     3ff:	40 0f 92 c6          	setb   %sil
     403:	48 89 11             	mov    %rdx,(%rcx)
     406:	49 8b 7d 00          	mov    0x0(%r13),%rdi
     40a:	48 83 c0 01          	add    $0x1,%rax
     40e:	48 83 c1 08          	add    $0x8,%rcx
     412:	48 39 f8             	cmp    %rdi,%rax
     415:	73 21                	jae    438 <__montgomery_revert+0x118>
     417:	49 39 06             	cmp    %rax,(%r14)
     41a:	76 d4                	jbe    3f0 <__montgomery_revert+0xd0>
     41c:	40 80 c6 ff          	add    $0xff,%sil
     420:	48 8b 11             	mov    (%rcx),%rdx
     423:	49 13 54 c6 20       	adc    0x20(%r14,%rax,8),%rdx
     428:	40 0f 92 c6          	setb   %sil
     42c:	48 89 11             	mov    %rdx,(%rcx)
     42f:	eb d5                	jmp    406 <__montgomery_revert+0xe6>
     431:	0f 1f 80 00 00 00 00 	nopl   0x0(%rax)
     438:	40 84 f6             	test   %sil,%sil
     43b:	74 11                	je     44e <__montgomery_revert+0x12e>
     43d:	48 83 c7 01          	add    $0x1,%rdi
     441:	40 0f b6 f6          	movzbl %sil,%esi
     445:	49 89 7d 00          	mov    %rdi,0x0(%r13)
     449:	49 89 74 c5 20       	mov    %rsi,0x20(%r13,%rax,8)
     44e:	48 85 ff             	test   %rdi,%rdi
     451:	0f 84 5a ff ff ff    	je     3b1 <__montgomery_revert+0x91>
     457:	48 89 f8             	mov    %rdi,%rax
     45a:	31 f6                	xor    %esi,%esi
     45c:	0f 1f 40 00          	nopl   0x0(%rax)
     460:	48 83 e8 01          	sub    $0x1,%rax
     464:	49 8b 4c c5 20       	mov    0x20(%r13,%rax,8),%rcx
     469:	48 89 ca             	mov    %rcx,%rdx
     46c:	48 c1 e1 3f          	shl    $0x3f,%rcx
     470:	48 d1 ea             	shr    %rdx
     473:	48 01 f2             	add    %rsi,%rdx
     476:	48 85 c0             	test   %rax,%rax
     479:	48 89 ce             	mov    %rcx,%rsi
     47c:	49 89 54 c5 20       	mov    %rdx,0x20(%r13,%rax,8)
     481:	75 dd                	jne    460 <__montgomery_revert+0x140>
     483:	e9 13 ff ff ff       	jmpq   39b <__montgomery_revert+0x7b>
     488:	48 8d 50 03          	lea    0x3(%rax),%rdx
     48c:	31 f6                	xor    %esi,%esi
     48e:	48 83 e2 fc          	and    $0xfffffffffffffffc,%rdx
     492:	48 29 fa             	sub    %rdi,%rdx
     495:	49 8d 3c fc          	lea    (%r12,%rdi,8),%rdi
     499:	48 c1 e2 03          	shl    $0x3,%rdx
     49d:	e8 00 00 00 00       	callq  4a2 <__montgomery_revert+0x182>
     4a2:	49 8b 3e             	mov    (%r14),%rdi
     4a5:	49 89 7d 00          	mov    %rdi,0x0(%r13)
     4a9:	e9 2e ff ff ff       	jmpq   3dc <__montgomery_revert+0xbc>
     4ae:	66 90                	xchg   %ax,%ax

00000000000004b0 <montgomery_mul>:
     4b0:	41 57                	push   %r15
     4b2:	41 56                	push   %r14
     4b4:	41 55                	push   %r13
     4b6:	41 54                	push   %r12
     4b8:	49 89 cd             	mov    %rcx,%r13
     4bb:	55                   	push   %rbp
     4bc:	53                   	push   %rbx
     4bd:	48 89 fb             	mov    %rdi,%rbx
     4c0:	48 89 d5             	mov    %rdx,%rbp
     4c3:	48 81 ec 98 00 00 00 	sub    $0x98,%rsp
     4ca:	4c 8b 25 00 00 00 00 	mov    0x0(%rip),%r12        # 4d1 <montgomery_mul+0x21>
     4d1:	49 8d bc 24 c0 08 00 	lea    0x8c0(%r12),%rdi
     4d8:	00 
     4d9:	e8 00 00 00 00       	callq  4de <montgomery_mul+0x2e>
     4de:	49 8d bc 24 60 09 00 	lea    0x960(%r12),%rdi
     4e5:	00 
     4e6:	48 89 ee             	mov    %rbp,%rsi
     4e9:	e8 00 00 00 00       	callq  4ee <montgomery_mul+0x3e>
     4ee:	48 8b 35 00 00 00 00 	mov    0x0(%rip),%rsi        # 4f5 <montgomery_mul+0x45>
     4f5:	48 89 df             	mov    %rbx,%rdi
     4f8:	e8 00 00 00 00       	callq  4fd <montgomery_mul+0x4d>
     4fd:	49 8b 84 24 80 09 00 	mov    0x980(%r12),%rax
     504:	00 
     505:	49 8b 8c 24 60 09 00 	mov    0x960(%r12),%rcx
     50c:	00 
     50d:	48 89 44 24 58       	mov    %rax,0x58(%rsp)
     512:	49 8b 45 00          	mov    0x0(%r13),%rax
     516:	48 39 c1             	cmp    %rax,%rcx
     519:	48 89 c5             	mov    %rax,%rbp
     51c:	48 0f 43 e9          	cmovae %rcx,%rbp
     520:	48 39 e9             	cmp    %rbp,%rcx
     523:	0f 82 18 05 00 00    	jb     a41 <montgomery_mul+0x591>
     529:	48 39 c5             	cmp    %rax,%rbp
     52c:	0f 87 3a 05 00 00    	ja     a6c <montgomery_mul+0x5bc>
     532:	48 8d 43 20          	lea    0x20(%rbx),%rax
     536:	48 8d 14 ed 28 00 00 	lea    0x28(,%rbp,8),%rdx
     53d:	00 
     53e:	31 f6                	xor    %esi,%esi
     540:	48 83 e2 e0          	and    $0xffffffffffffffe0,%rdx
     544:	48 89 c7             	mov    %rax,%rdi
     547:	48 89 44 24 60       	mov    %rax,0x60(%rsp)
     54c:	e8 00 00 00 00       	callq  551 <montgomery_mul+0xa1>
     551:	49 83 7d 00 00       	cmpq   $0x0,0x0(%r13)
     556:	48 8d 45 01          	lea    0x1(%rbp),%rax
     55a:	48 89 44 24 40       	mov    %rax,0x40(%rsp)
     55f:	0f 84 22 02 00 00    	je     787 <montgomery_mul+0x2d7>
     565:	48 8d 04 ed 18 00 00 	lea    0x18(,%rbp,8),%rax
     56c:	00 
     56d:	c7 44 24 2c 00 00 00 	movl   $0x0,0x2c(%rsp)
     574:	00 
     575:	48 8d 3c 03          	lea    (%rbx,%rax,1),%rdi
     579:	48 83 e8 10          	sub    $0x10,%rax
     57d:	48 89 44 24 68       	mov    %rax,0x68(%rsp)
     582:	31 c0                	xor    %eax,%eax
     584:	48 89 7c 24 48       	mov    %rdi,0x48(%rsp)
     589:	48 8d 3c eb          	lea    (%rbx,%rbp,8),%rdi
     58d:	48 89 c2             	mov    %rax,%rdx
     590:	48 89 7c 24 50       	mov    %rdi,0x50(%rsp)
     595:	0f 1f 00             	nopl   (%rax)
     598:	49 39 94 24 c0 08 00 	cmp    %rdx,0x8c0(%r12)
     59f:	00 
     5a0:	48 8b 43 20          	mov    0x20(%rbx),%rax
     5a4:	0f 86 36 02 00 00    	jbe    7e0 <montgomery_mul+0x330>
     5aa:	8b 54 24 2c          	mov    0x2c(%rsp),%edx
     5ae:	48 89 44 24 30       	mov    %rax,0x30(%rsp)
     5b3:	48 8b 3d 00 00 00 00 	mov    0x0(%rip),%rdi        # 5ba <montgomery_mul+0x10a>
     5ba:	48 c7 44 24 38 00 00 	movq   $0x0,0x38(%rsp)
     5c1:	00 00 
     5c3:	49 8b 94 d4 e0 08 00 	mov    0x8e0(%r12,%rdx,8),%rdx
     5ca:	00 
     5cb:	49 89 d3             	mov    %rdx,%r11
     5ce:	48 89 54 24 20       	mov    %rdx,0x20(%rsp)
     5d3:	c4 e2 eb f6 4c 24 58 	mulx   0x58(%rsp),%rdx,%rcx
     5da:	48 03 54 24 30       	add    0x30(%rsp),%rdx
     5df:	4d 85 db             	test   %r11,%r11
     5e2:	c4 62 8b f6 ff       	mulx   %rdi,%r14,%r15
     5e7:	4c 89 da             	mov    %r11,%rdx
     5ea:	4c 89 f6             	mov    %r14,%rsi
     5ed:	0f 84 3d 02 00 00    	je     830 <montgomery_mul+0x380>
     5f3:	4d 85 f6             	test   %r14,%r14
     5f6:	0f 84 34 02 00 00    	je     830 <montgomery_mul+0x380>
     5fc:	c4 42 b3 f6 94 24 80 	mulx   0x980(%r12),%r9,%r10
     603:	09 00 00 
     606:	4c 89 f2             	mov    %r14,%rdx
     609:	4c 89 74 24 10       	mov    %r14,0x10(%rsp)
     60e:	49 01 c1             	add    %rax,%r9
     611:	c4 c2 fb f6 55 20    	mulx   0x20(%r13),%rax,%rdx
     617:	4c 89 d6             	mov    %r10,%rsi
     61a:	41 0f 92 c3          	setb   %r11b
     61e:	4c 01 c8             	add    %r9,%rax
     621:	4c 89 8c 24 80 00 00 	mov    %r9,0x80(%rsp)
     628:	00 
     629:	41 0f 92 c2          	setb   %r10b
     62d:	48 83 fd 01          	cmp    $0x1,%rbp
     631:	48 89 d1             	mov    %rdx,%rcx
     634:	48 89 84 24 88 00 00 	mov    %rax,0x88(%rsp)
     63b:	00 
     63c:	0f 86 4a 04 00 00    	jbe    a8c <montgomery_mul+0x5dc>
     642:	41 bf 01 00 00 00    	mov    $0x1,%r15d
     648:	bf 01 00 00 00       	mov    $0x1,%edi
     64d:	45 31 c0             	xor    %r8d,%r8d
     650:	4c 89 f8             	mov    %r15,%rax
     653:	4c 8b 7c 24 10       	mov    0x10(%rsp),%r15
     658:	45 31 c9             	xor    %r9d,%r9d
     65b:	48 89 74 24 08       	mov    %rsi,0x8(%rsp)
     660:	41 89 fe             	mov    %edi,%r14d
     663:	0f 1f 44 00 00       	nopl   0x0(%rax,%rax,1)
     668:	48 8b 54 24 20       	mov    0x20(%rsp),%rdx
     66d:	48 83 c0 04          	add    $0x4,%rax
     671:	41 80 c1 ff          	add    $0xff,%r9b
     675:	c4 c2 cb f6 bc c4 60 	mulx   0x960(%r12,%rax,8),%rsi,%rdi
     67c:	09 00 00 
     67f:	48 8b 14 c3          	mov    (%rbx,%rax,8),%rdx
     683:	48 89 74 24 10       	mov    %rsi,0x10(%rsp)
     688:	48 8b 74 24 10       	mov    0x10(%rsp),%rsi
     68d:	48 13 74 24 08       	adc    0x8(%rsp),%rsi
     692:	48 89 7c 24 18       	mov    %rdi,0x18(%rsp)
     697:	41 0f 92 c1          	setb   %r9b
     69b:	41 80 c3 ff          	add    $0xff,%r11b
     69f:	48 89 74 24 70       	mov    %rsi,0x70(%rsp)
     6a4:	48 11 f2             	adc    %rsi,%rdx
     6a7:	48 89 94 24 80 00 00 	mov    %rdx,0x80(%rsp)
     6ae:	00 
     6af:	4c 89 fa             	mov    %r15,%rdx
     6b2:	41 0f 92 c3          	setb   %r11b
     6b6:	c4 c2 fb f6 54 c5 00 	mulx   0x0(%r13,%rax,8),%rax,%rdx
     6bd:	41 80 c0 ff          	add    $0xff,%r8b
     6c1:	48 11 c8             	adc    %rcx,%rax
     6c4:	48 89 d6             	mov    %rdx,%rsi
     6c7:	41 8d 56 ff          	lea    -0x1(%r14),%edx
     6cb:	48 89 c1             	mov    %rax,%rcx
     6ce:	41 0f 92 c0          	setb   %r8b
     6d2:	41 80 c2 ff          	add    $0xff,%r10b
     6d6:	48 13 8c 24 80 00 00 	adc    0x80(%rsp),%rcx
     6dd:	00 
     6de:	48 89 44 24 78       	mov    %rax,0x78(%rsp)
     6e3:	41 8d 46 01          	lea    0x1(%r14),%eax
     6e7:	49 89 c6             	mov    %rax,%r14
     6ea:	41 0f 92 c2          	setb   %r10b
     6ee:	48 39 c5             	cmp    %rax,%rbp
     6f1:	48 89 4c d3 20       	mov    %rcx,0x20(%rbx,%rdx,8)
     6f6:	48 89 7c 24 08       	mov    %rdi,0x8(%rsp)
     6fb:	48 89 f1             	mov    %rsi,%rcx
     6fe:	0f 87 64 ff ff ff    	ja     668 <montgomery_mul+0x1b8>
     704:	49 89 fe             	mov    %rdi,%r14
     707:	48 89 f2             	mov    %rsi,%rdx
     70a:	45 0f b6 c9          	movzbl %r9b,%r9d
     70e:	45 0f b6 c0          	movzbl %r8b,%r8d
     712:	44 89 cf             	mov    %r9d,%edi
     715:	31 c0                	xor    %eax,%eax
     717:	40 80 c7 ff          	add    $0xff,%dil
     71b:	48 8b 7c 24 50       	mov    0x50(%rsp),%rdi
     720:	49 11 c6             	adc    %rax,%r14
     723:	41 80 c3 ff          	add    $0xff,%r11b
     727:	4c 89 74 24 70       	mov    %r14,0x70(%rsp)
     72c:	48 8b 77 20          	mov    0x20(%rdi),%rsi
     730:	49 11 f6             	adc    %rsi,%r14
     733:	48 89 74 24 08       	mov    %rsi,0x8(%rsp)
     738:	44 89 c6             	mov    %r8d,%esi
     73b:	0f 92 c1             	setb   %cl
     73e:	40 80 c6 ff          	add    $0xff,%sil
     742:	4c 89 b4 24 80 00 00 	mov    %r14,0x80(%rsp)
     749:	00 
     74a:	48 11 c2             	adc    %rax,%rdx
     74d:	48 8b 44 24 48       	mov    0x48(%rsp),%rax
     752:	41 80 c2 ff          	add    $0xff,%r10b
     756:	49 11 d6             	adc    %rdx,%r14
     759:	48 89 54 24 78       	mov    %rdx,0x78(%rsp)
     75e:	0f b6 c9             	movzbl %cl,%ecx
     761:	4c 89 30             	mov    %r14,(%rax)
     764:	48 13 4f 28          	adc    0x28(%rdi),%rcx
     768:	48 c7 47 28 00 00 00 	movq   $0x0,0x28(%rdi)
     76f:	00 
     770:	48 89 4f 20          	mov    %rcx,0x20(%rdi)
     774:	83 44 24 2c 01       	addl   $0x1,0x2c(%rsp)
     779:	8b 54 24 2c          	mov    0x2c(%rsp),%edx
     77d:	49 3b 55 00          	cmp    0x0(%r13),%rdx
     781:	0f 82 11 fe ff ff    	jb     598 <montgomery_mul+0xe8>
     787:	48 83 7c eb 20 00    	cmpq   $0x0,0x20(%rbx,%rbp,8)
     78d:	48 8b 44 24 40       	mov    0x40(%rsp),%rax
     792:	48 89 03             	mov    %rax,(%rbx)
     795:	75 21                	jne    7b8 <montgomery_mul+0x308>
     797:	48 83 f8 01          	cmp    $0x1,%rax
     79b:	77 0c                	ja     7a9 <montgomery_mul+0x2f9>
     79d:	eb 19                	jmp    7b8 <montgomery_mul+0x308>
     79f:	90                   	nop
     7a0:	48 83 fd 01          	cmp    $0x1,%rbp
     7a4:	76 0f                	jbe    7b5 <montgomery_mul+0x305>
     7a6:	48 89 c5             	mov    %rax,%rbp
     7a9:	48 83 7c eb 18 00    	cmpq   $0x0,0x18(%rbx,%rbp,8)
     7af:	48 8d 45 ff          	lea    -0x1(%rbp),%rax
     7b3:	74 eb                	je     7a0 <montgomery_mul+0x2f0>
     7b5:	48 89 2b             	mov    %rbp,(%rbx)
     7b8:	4c 89 ee             	mov    %r13,%rsi
     7bb:	48 89 df             	mov    %rbx,%rdi
     7be:	e8 00 00 00 00       	callq  7c3 <montgomery_mul+0x313>
     7c3:	85 c0                	test   %eax,%eax
     7c5:	0f 85 cf 01 00 00    	jne    99a <montgomery_mul+0x4ea>
     7cb:	48 81 c4 98 00 00 00 	add    $0x98,%rsp
     7d2:	5b                   	pop    %rbx
     7d3:	5d                   	pop    %rbp
     7d4:	41 5c                	pop    %r12
     7d6:	41 5d                	pop    %r13
     7d8:	41 5e                	pop    %r14
     7da:	41 5f                	pop    %r15
     7dc:	c3                   	retq   
     7dd:	0f 1f 00             	nopl   (%rax)
     7e0:	48 89 c2             	mov    %rax,%rdx
     7e3:	c4 62 8b f6 3d 00 00 	mulx   0x0(%rip),%r14,%r15        # 7ec <montgomery_mul+0x33c>
     7ea:	00 00 
     7ec:	4c 89 f6             	mov    %r14,%rsi
     7ef:	48 85 f6             	test   %rsi,%rsi
     7f2:	0f 85 08 01 00 00    	jne    900 <montgomery_mul+0x450>
     7f8:	48 83 7c 24 40 00    	cmpq   $0x0,0x40(%rsp)
     7fe:	74 13                	je     813 <montgomery_mul+0x363>
     800:	48 8b 54 24 68       	mov    0x68(%rsp),%rdx
     805:	48 8b 7c 24 60       	mov    0x60(%rsp),%rdi
     80a:	48 8d 73 28          	lea    0x28(%rbx),%rsi
     80e:	e8 00 00 00 00       	callq  813 <montgomery_mul+0x363>
     813:	48 8b 44 24 40       	mov    0x40(%rsp),%rax
     818:	48 c7 44 c3 20 00 00 	movq   $0x0,0x20(%rbx,%rax,8)
     81f:	00 00 
     821:	e9 4e ff ff ff       	jmpq   774 <montgomery_mul+0x2c4>
     826:	66 2e 0f 1f 84 00 00 	nopw   %cs:0x0(%rax,%rax,1)
     82d:	00 00 00 
     830:	48 8b 54 24 20       	mov    0x20(%rsp),%rdx
     835:	48 85 d2             	test   %rdx,%rdx
     838:	74 b5                	je     7ef <montgomery_mul+0x33f>
     83a:	c4 42 b3 f6 94 24 80 	mulx   0x980(%r12),%r9,%r10
     841:	09 00 00 
     844:	4c 01 c8             	add    %r9,%rax
     847:	4c 89 d1             	mov    %r10,%rcx
     84a:	41 0f 92 c2          	setb   %r10b
     84e:	48 83 fd 01          	cmp    $0x1,%rbp
     852:	48 89 84 24 88 00 00 	mov    %rax,0x88(%rsp)
     859:	00 
     85a:	0f 86 42 02 00 00    	jbe    aa2 <montgomery_mul+0x5f2>
     860:	45 31 c0             	xor    %r8d,%r8d
     863:	bf 01 00 00 00       	mov    $0x1,%edi
     868:	be 01 00 00 00       	mov    $0x1,%esi
     86d:	49 89 d1             	mov    %rdx,%r9
     870:	48 83 c6 04          	add    $0x4,%rsi
     874:	4c 89 ca             	mov    %r9,%rdx
     877:	41 80 c0 ff          	add    $0xff,%r8b
     87b:	c4 42 8b f6 bc f4 60 	mulx   0x960(%r12,%rsi,8),%r14,%r15
     882:	09 00 00 
     885:	48 8b 04 f3          	mov    (%rbx,%rsi,8),%rax
     889:	8d 77 01             	lea    0x1(%rdi),%esi
     88c:	4c 11 f1             	adc    %r14,%rcx
     88f:	4c 89 fa             	mov    %r15,%rdx
     892:	48 89 4c 24 70       	mov    %rcx,0x70(%rsp)
     897:	41 0f 92 c0          	setb   %r8b
     89b:	41 80 c2 ff          	add    $0xff,%r10b
     89f:	48 13 44 24 70       	adc    0x70(%rsp),%rax
     8a4:	8d 4f ff             	lea    -0x1(%rdi),%ecx
     8a7:	48 89 f7             	mov    %rsi,%rdi
     8aa:	41 0f 92 c2          	setb   %r10b
     8ae:	48 39 f5             	cmp    %rsi,%rbp
     8b1:	48 89 44 cb 20       	mov    %rax,0x20(%rbx,%rcx,8)
     8b6:	4c 89 f9             	mov    %r15,%rcx
     8b9:	77 b5                	ja     870 <montgomery_mul+0x3c0>
     8bb:	45 0f b6 c0          	movzbl %r8b,%r8d
     8bf:	44 89 c7             	mov    %r8d,%edi
     8c2:	31 c0                	xor    %eax,%eax
     8c4:	40 80 c7 ff          	add    $0xff,%dil
     8c8:	48 11 c2             	adc    %rax,%rdx
     8cb:	48 89 54 24 70       	mov    %rdx,0x70(%rsp)
     8d0:	48 8b 7c 24 50       	mov    0x50(%rsp),%rdi
     8d5:	41 80 c2 ff          	add    $0xff,%r10b
     8d9:	48 8b 47 20          	mov    0x20(%rdi),%rax
     8dd:	48 11 c2             	adc    %rax,%rdx
     8e0:	48 89 44 24 08       	mov    %rax,0x8(%rsp)
     8e5:	48 8b 44 24 48       	mov    0x48(%rsp),%rax
     8ea:	48 89 10             	mov    %rdx,(%rax)
     8ed:	0f 92 c0             	setb   %al
     8f0:	0f b6 c0             	movzbl %al,%eax
     8f3:	48 01 47 20          	add    %rax,0x20(%rdi)
     8f7:	e9 78 fe ff ff       	jmpq   774 <montgomery_mul+0x2c4>
     8fc:	0f 1f 40 00          	nopl   0x0(%rax)
     900:	4c 89 f2             	mov    %r14,%rdx
     903:	4d 89 f3             	mov    %r14,%r11
     906:	c4 42 b3 f6 55 20    	mulx   0x20(%r13),%r9,%r10
     90c:	4c 01 c8             	add    %r9,%rax
     90f:	4c 89 d1             	mov    %r10,%rcx
     912:	41 0f 92 c2          	setb   %r10b
     916:	48 83 fd 01          	cmp    $0x1,%rbp
     91a:	48 89 84 24 88 00 00 	mov    %rax,0x88(%rsp)
     921:	00 
     922:	0f 86 85 01 00 00    	jbe    aad <montgomery_mul+0x5fd>
     928:	45 31 c0             	xor    %r8d,%r8d
     92b:	bf 01 00 00 00       	mov    $0x1,%edi
     930:	be 01 00 00 00       	mov    $0x1,%esi
     935:	0f 1f 00             	nopl   (%rax)
     938:	48 83 c6 04          	add    $0x4,%rsi
     93c:	4c 89 da             	mov    %r11,%rdx
     93f:	41 80 c0 ff          	add    $0xff,%r8b
     943:	c4 42 8b f6 7c f5 00 	mulx   0x0(%r13,%rsi,8),%r14,%r15
     94a:	48 8b 04 f3          	mov    (%rbx,%rsi,8),%rax
     94e:	8d 77 01             	lea    0x1(%rdi),%esi
     951:	4c 11 f1             	adc    %r14,%rcx
     954:	4c 89 fa             	mov    %r15,%rdx
     957:	48 89 4c 24 78       	mov    %rcx,0x78(%rsp)
     95c:	41 0f 92 c0          	setb   %r8b
     960:	41 80 c2 ff          	add    $0xff,%r10b
     964:	48 13 44 24 78       	adc    0x78(%rsp),%rax
     969:	8d 4f ff             	lea    -0x1(%rdi),%ecx
     96c:	48 89 f7             	mov    %rsi,%rdi
     96f:	41 0f 92 c2          	setb   %r10b
     973:	48 39 f5             	cmp    %rsi,%rbp
     976:	48 89 44 cb 20       	mov    %rax,0x20(%rbx,%rcx,8)
     97b:	4c 89 f9             	mov    %r15,%rcx
     97e:	77 b8                	ja     938 <montgomery_mul+0x488>
     980:	45 0f b6 c0          	movzbl %r8b,%r8d
     984:	44 89 c7             	mov    %r8d,%edi
     987:	31 c0                	xor    %eax,%eax
     989:	40 80 c7 ff          	add    $0xff,%dil
     98d:	48 11 c2             	adc    %rax,%rdx
     990:	48 89 54 24 78       	mov    %rdx,0x78(%rsp)
     995:	e9 36 ff ff ff       	jmpq   8d0 <montgomery_mul+0x420>
     99a:	48 8b 33             	mov    (%rbx),%rsi
     99d:	48 85 f6             	test   %rsi,%rsi
     9a0:	0f 84 25 fe ff ff    	je     7cb <montgomery_mul+0x31b>
     9a6:	48 8b 44 24 60       	mov    0x60(%rsp),%rax
     9ab:	31 c9                	xor    %ecx,%ecx
     9ad:	31 d2                	xor    %edx,%edx
     9af:	31 ff                	xor    %edi,%edi
     9b1:	eb 28                	jmp    9db <montgomery_mul+0x52b>
     9b3:	0f 1f 44 00 00       	nopl   0x0(%rax,%rax,1)
     9b8:	84 c9                	test   %cl,%cl
     9ba:	74 46                	je     a02 <montgomery_mul+0x552>
     9bc:	48 8b 30             	mov    (%rax),%rsi
     9bf:	80 c1 ff             	add    $0xff,%cl
     9c2:	48 19 fe             	sbb    %rdi,%rsi
     9c5:	48 89 30             	mov    %rsi,(%rax)
     9c8:	48 8b 33             	mov    (%rbx),%rsi
     9cb:	0f 92 c1             	setb   %cl
     9ce:	48 83 c2 01          	add    $0x1,%rdx
     9d2:	48 83 c0 08          	add    $0x8,%rax
     9d6:	48 39 f2             	cmp    %rsi,%rdx
     9d9:	73 27                	jae    a02 <montgomery_mul+0x552>
     9db:	49 39 55 00          	cmp    %rdx,0x0(%r13)
     9df:	76 d7                	jbe    9b8 <montgomery_mul+0x508>
     9e1:	48 8b 30             	mov    (%rax),%rsi
     9e4:	80 c1 ff             	add    $0xff,%cl
     9e7:	49 1b 74 d5 20       	sbb    0x20(%r13,%rdx,8),%rsi
     9ec:	48 89 30             	mov    %rsi,(%rax)
     9ef:	48 8b 33             	mov    (%rbx),%rsi
     9f2:	0f 92 c1             	setb   %cl
     9f5:	48 83 c2 01          	add    $0x1,%rdx
     9f9:	48 83 c0 08          	add    $0x8,%rax
     9fd:	48 39 f2             	cmp    %rsi,%rdx
     a00:	72 d9                	jb     9db <montgomery_mul+0x52b>
     a02:	48 83 fe 01          	cmp    $0x1,%rsi
     a06:	0f 86 bf fd ff ff    	jbe    7cb <montgomery_mul+0x31b>
     a0c:	48 83 7c f3 18 00    	cmpq   $0x0,0x18(%rbx,%rsi,8)
     a12:	48 8d 46 ff          	lea    -0x1(%rsi),%rax
     a16:	74 17                	je     a2f <montgomery_mul+0x57f>
     a18:	e9 ae fd ff ff       	jmpq   7cb <montgomery_mul+0x31b>
     a1d:	0f 1f 00             	nopl   (%rax)
     a20:	48 8d 50 ff          	lea    -0x1(%rax),%rdx
     a24:	48 83 7c d3 20 00    	cmpq   $0x0,0x20(%rbx,%rdx,8)
     a2a:	75 6e                	jne    a9a <montgomery_mul+0x5ea>
     a2c:	48 89 d0             	mov    %rdx,%rax
     a2f:	48 83 f8 01          	cmp    $0x1,%rax
     a33:	75 eb                	jne    a20 <montgomery_mul+0x570>
     a35:	48 c7 03 01 00 00 00 	movq   $0x1,(%rbx)
     a3c:	e9 8a fd ff ff       	jmpq   7cb <montgomery_mul+0x31b>
     a41:	48 8d 55 03          	lea    0x3(%rbp),%rdx
     a45:	49 8d bc cc 80 09 00 	lea    0x980(%r12,%rcx,8),%rdi
     a4c:	00 
     a4d:	31 f6                	xor    %esi,%esi
     a4f:	48 83 e2 fc          	and    $0xfffffffffffffffc,%rdx
     a53:	48 29 ca             	sub    %rcx,%rdx
     a56:	48 c1 e2 03          	shl    $0x3,%rdx
     a5a:	e8 00 00 00 00       	callq  a5f <montgomery_mul+0x5af>
     a5f:	49 8b 45 00          	mov    0x0(%r13),%rax
     a63:	48 39 c5             	cmp    %rax,%rbp
     a66:	0f 86 c6 fa ff ff    	jbe    532 <montgomery_mul+0x82>
     a6c:	48 8d 55 03          	lea    0x3(%rbp),%rdx
     a70:	49 8d 7c c5 20       	lea    0x20(%r13,%rax,8),%rdi
     a75:	31 f6                	xor    %esi,%esi
     a77:	48 83 e2 fc          	and    $0xfffffffffffffffc,%rdx
     a7b:	48 29 c2             	sub    %rax,%rdx
     a7e:	48 c1 e2 03          	shl    $0x3,%rdx
     a82:	e8 00 00 00 00       	callq  a87 <montgomery_mul+0x5d7>
     a87:	e9 a6 fa ff ff       	jmpq   532 <montgomery_mul+0x82>
     a8c:	49 89 f6             	mov    %rsi,%r14
     a8f:	45 31 c0             	xor    %r8d,%r8d
     a92:	45 31 c9             	xor    %r9d,%r9d
     a95:	e9 78 fc ff ff       	jmpq   712 <montgomery_mul+0x262>
     a9a:	48 89 03             	mov    %rax,(%rbx)
     a9d:	e9 29 fd ff ff       	jmpq   7cb <montgomery_mul+0x31b>
     aa2:	48 89 ca             	mov    %rcx,%rdx
     aa5:	45 31 c0             	xor    %r8d,%r8d
     aa8:	e9 12 fe ff ff       	jmpq   8bf <montgomery_mul+0x40f>
     aad:	48 89 ca             	mov    %rcx,%rdx
     ab0:	45 31 c0             	xor    %r8d,%r8d
     ab3:	e9 cc fe ff ff       	jmpq   984 <montgomery_mul+0x4d4>
     ab8:	0f 1f 84 00 00 00 00 	nopl   0x0(%rax,%rax,1)
     abf:	00 

0000000000000ac0 <bigint_mul_add_rshift_inplace_x2>:
     ac0:	41 57                	push   %r15
     ac2:	41 56                	push   %r14
     ac4:	41 55                	push   %r13
     ac6:	41 54                	push   %r12
     ac8:	55                   	push   %rbp
     ac9:	53                   	push   %rbx
     aca:	48 83 ec 58          	sub    $0x58,%rsp
     ace:	48 85 d2             	test   %rdx,%rdx
     ad1:	48 89 54 24 10       	mov    %rdx,0x10(%rsp)
     ad6:	4c 89 44 24 18       	mov    %r8,0x18(%rsp)
     adb:	74 05                	je     ae2 <bigint_mul_add_rshift_inplace_x2+0x22>
     add:	4d 85 c0             	test   %r8,%r8
     ae0:	75 56                	jne    b38 <bigint_mul_add_rshift_inplace_x2+0x78>
     ae2:	48 83 7c 24 10 00    	cmpq   $0x0,0x10(%rsp)
     ae8:	0f 85 a2 01 00 00    	jne    c90 <bigint_mul_add_rshift_inplace_x2+0x1d0>
     aee:	48 83 7c 24 18 00    	cmpq   $0x0,0x18(%rsp)
     af4:	0f 85 56 02 00 00    	jne    d50 <bigint_mul_add_rshift_inplace_x2+0x290>
     afa:	49 83 c1 01          	add    $0x1,%r9
     afe:	48 89 fb             	mov    %rdi,%rbx
     b01:	4c 89 cd             	mov    %r9,%rbp
     b04:	74 15                	je     b1b <bigint_mul_add_rshift_inplace_x2+0x5b>
     b06:	48 8d 77 28          	lea    0x28(%rdi),%rsi
     b0a:	4a 8d 14 cd 00 00 00 	lea    0x0(,%r9,8),%rdx
     b11:	00 
     b12:	48 8d 7f 20          	lea    0x20(%rdi),%rdi
     b16:	e8 00 00 00 00       	callq  b1b <bigint_mul_add_rshift_inplace_x2+0x5b>
     b1b:	48 c7 44 eb 20 00 00 	movq   $0x0,0x20(%rbx,%rbp,8)
     b22:	00 00 
     b24:	48 83 c4 58          	add    $0x58,%rsp
     b28:	5b                   	pop    %rbx
     b29:	5d                   	pop    %rbp
     b2a:	41 5c                	pop    %r12
     b2c:	41 5d                	pop    %r13
     b2e:	41 5e                	pop    %r14
     b30:	41 5f                	pop    %r15
     b32:	c3                   	retq   
     b33:	0f 1f 44 00 00       	nopl   0x0(%rax,%rax,1)
     b38:	c4 e2 fb f6 56 20    	mulx   0x20(%rsi),%rax,%rdx
     b3e:	49 89 c4             	mov    %rax,%r12
     b41:	4c 03 67 20          	add    0x20(%rdi),%r12
     b45:	49 89 d2             	mov    %rdx,%r10
     b48:	4c 89 c2             	mov    %r8,%rdx
     b4b:	c4 e2 fb f6 51 20    	mulx   0x20(%rcx),%rax,%rdx
     b51:	49 89 d3             	mov    %rdx,%r11
     b54:	40 0f 92 c5          	setb   %bpl
     b58:	49 01 c4             	add    %rax,%r12
     b5b:	41 0f 92 c0          	setb   %r8b
     b5f:	49 83 f9 01          	cmp    $0x1,%r9
     b63:	0f 86 8d 02 00 00    	jbe    df6 <bigint_mul_add_rshift_inplace_x2+0x336>
     b69:	48 8d 54 24 30       	lea    0x30(%rsp),%rdx
     b6e:	48 8d 44 24 38       	lea    0x38(%rsp),%rax
     b73:	4c 89 4c 24 20       	mov    %r9,0x20(%rsp)
     b78:	41 bc 01 00 00 00    	mov    $0x1,%r12d
     b7e:	31 db                	xor    %ebx,%ebx
     b80:	45 31 ed             	xor    %r13d,%r13d
     b83:	41 bf 01 00 00 00    	mov    $0x1,%r15d
     b89:	48 89 44 24 28       	mov    %rax,0x28(%rsp)
     b8e:	49 89 d1             	mov    %rdx,%r9
     b91:	0f 1f 80 00 00 00 00 	nopl   0x0(%rax)
     b98:	48 8b 54 24 10       	mov    0x10(%rsp),%rdx
     b9d:	49 83 c7 04          	add    $0x4,%r15
     ba1:	41 80 c5 ff          	add    $0xff,%r13b
     ba5:	c4 a2 fb f6 14 fe    	mulx   (%rsi,%r15,8),%rax,%rdx
     bab:	4c 11 d0             	adc    %r10,%rax
     bae:	49 89 d6             	mov    %rdx,%r14
     bb1:	45 8d 54 24 ff       	lea    -0x1(%r12),%r10d
     bb6:	49 89 01             	mov    %rax,(%r9)
     bb9:	41 0f 92 c5          	setb   %r13b
     bbd:	4a 8b 04 ff          	mov    (%rdi,%r15,8),%rax
     bc1:	40 80 c5 ff          	add    $0xff,%bpl
     bc5:	48 13 44 24 30       	adc    0x30(%rsp),%rax
     bca:	48 8b 54 24 18       	mov    0x18(%rsp),%rdx
     bcf:	48 89 44 24 40       	mov    %rax,0x40(%rsp)
     bd4:	40 0f 92 c5          	setb   %bpl
     bd8:	80 c3 ff             	add    $0xff,%bl
     bdb:	c4 a2 fb f6 14 f9    	mulx   (%rcx,%r15,8),%rax,%rdx
     be1:	45 8d 7c 24 01       	lea    0x1(%r12),%r15d
     be6:	48 89 04 24          	mov    %rax,(%rsp)
     bea:	48 8b 04 24          	mov    (%rsp),%rax
     bee:	48 89 54 24 08       	mov    %rdx,0x8(%rsp)
     bf3:	4d 89 fc             	mov    %r15,%r12
     bf6:	4c 11 d8             	adc    %r11,%rax
     bf9:	4c 8b 5c 24 28       	mov    0x28(%rsp),%r11
     bfe:	0f 92 c3             	setb   %bl
     c01:	41 80 c0 ff          	add    $0xff,%r8b
     c05:	49 89 03             	mov    %rax,(%r11)
     c08:	48 8b 44 24 40       	mov    0x40(%rsp),%rax
     c0d:	49 89 d3             	mov    %rdx,%r11
     c10:	48 13 44 24 38       	adc    0x38(%rsp),%rax
     c15:	4a 89 44 d7 20       	mov    %rax,0x20(%rdi,%r10,8)
     c1a:	41 0f 92 c0          	setb   %r8b
     c1e:	4c 3b 7c 24 20       	cmp    0x20(%rsp),%r15
     c23:	4d 89 f2             	mov    %r14,%r10
     c26:	0f 82 6c ff ff ff    	jb     b98 <bigint_mul_add_rshift_inplace_x2+0xd8>
     c2c:	4c 8b 4c 24 20       	mov    0x20(%rsp),%r9
     c31:	45 0f b6 ed          	movzbl %r13b,%r13d
     c35:	0f b6 c3             	movzbl %bl,%eax
     c38:	44 89 ee             	mov    %r13d,%esi
     c3b:	45 31 d2             	xor    %r10d,%r10d
     c3e:	40 80 c6 ff          	add    $0xff,%sil
     c42:	4a 8d 34 cf          	lea    (%rdi,%r9,8),%rsi
     c46:	4d 11 d6             	adc    %r10,%r14
     c49:	40 80 c5 ff          	add    $0xff,%bpl
     c4d:	4c 13 76 20          	adc    0x20(%rsi),%r14
     c51:	0f 92 c1             	setb   %cl
     c54:	04 ff                	add    $0xff,%al
     c56:	4c 11 d2             	adc    %r10,%rdx
     c59:	41 80 c0 ff          	add    $0xff,%r8b
     c5d:	0f b6 c1             	movzbl %cl,%eax
     c60:	4c 11 f2             	adc    %r14,%rdx
     c63:	4a 89 54 cf 18       	mov    %rdx,0x18(%rdi,%r9,8)
     c68:	48 13 46 28          	adc    0x28(%rsi),%rax
     c6c:	48 c7 46 28 00 00 00 	movq   $0x0,0x28(%rsi)
     c73:	00 
     c74:	48 89 46 20          	mov    %rax,0x20(%rsi)
     c78:	48 83 c4 58          	add    $0x58,%rsp
     c7c:	5b                   	pop    %rbx
     c7d:	5d                   	pop    %rbp
     c7e:	41 5c                	pop    %r12
     c80:	41 5d                	pop    %r13
     c82:	41 5e                	pop    %r14
     c84:	41 5f                	pop    %r15
     c86:	c3                   	retq   
     c87:	66 0f 1f 84 00 00 00 	nopw   0x0(%rax,%rax,1)
     c8e:	00 00 
     c90:	48 8b 54 24 10       	mov    0x10(%rsp),%rdx
     c95:	c4 e2 fb f6 56 20    	mulx   0x20(%rsi),%rax,%rdx
     c9b:	48 03 47 20          	add    0x20(%rdi),%rax
     c9f:	48 89 d1             	mov    %rdx,%rcx
     ca2:	41 0f 92 c3          	setb   %r11b
     ca6:	49 83 f9 01          	cmp    $0x1,%r9
     caa:	0f 86 3e 01 00 00    	jbe    dee <bigint_mul_add_rshift_inplace_x2+0x32e>
     cb0:	48 8b 54 24 10       	mov    0x10(%rsp),%rdx
     cb5:	48 8d 5c 24 30       	lea    0x30(%rsp),%rbx
     cba:	41 b8 01 00 00 00    	mov    $0x1,%r8d
     cc0:	45 31 d2             	xor    %r10d,%r10d
     cc3:	b8 01 00 00 00       	mov    $0x1,%eax
     cc8:	0f 1f 84 00 00 00 00 	nopl   0x0(%rax,%rax,1)
     ccf:	00 
     cd0:	48 83 c0 04          	add    $0x4,%rax
     cd4:	41 80 c2 ff          	add    $0xff,%r10b
     cd8:	c4 62 93 f6 34 c6    	mulx   (%rsi,%rax,8),%r13,%r14
     cde:	4c 11 e9             	adc    %r13,%rcx
     ce1:	48 89 0b             	mov    %rcx,(%rbx)
     ce4:	41 0f 92 c2          	setb   %r10b
     ce8:	48 8b 04 c7          	mov    (%rdi,%rax,8),%rax
     cec:	41 80 c3 ff          	add    $0xff,%r11b
     cf0:	48 13 44 24 30       	adc    0x30(%rsp),%rax
     cf5:	41 8d 48 ff          	lea    -0x1(%r8),%ecx
     cf9:	48 89 44 cf 20       	mov    %rax,0x20(%rdi,%rcx,8)
     cfe:	41 8d 40 01          	lea    0x1(%r8),%eax
     d02:	41 0f 92 c3          	setb   %r11b
     d06:	4c 89 f1             	mov    %r14,%rcx
     d09:	49 39 c1             	cmp    %rax,%r9
     d0c:	49 89 c0             	mov    %rax,%r8
     d0f:	77 bf                	ja     cd0 <bigint_mul_add_rshift_inplace_x2+0x210>
     d11:	4c 89 f2             	mov    %r14,%rdx
     d14:	45 0f b6 d2          	movzbl %r10b,%r10d
     d18:	44 89 d6             	mov    %r10d,%esi
     d1b:	31 c0                	xor    %eax,%eax
     d1d:	40 80 c6 ff          	add    $0xff,%sil
     d21:	48 11 c2             	adc    %rax,%rdx
     d24:	4a 8d 04 cf          	lea    (%rdi,%r9,8),%rax
     d28:	41 80 c3 ff          	add    $0xff,%r11b
     d2c:	48 13 50 20          	adc    0x20(%rax),%rdx
     d30:	4a 89 54 cf 18       	mov    %rdx,0x18(%rdi,%r9,8)
     d35:	0f 92 c2             	setb   %dl
     d38:	0f b6 d2             	movzbl %dl,%edx
     d3b:	48 01 50 20          	add    %rdx,0x20(%rax)
     d3f:	48 83 c4 58          	add    $0x58,%rsp
     d43:	5b                   	pop    %rbx
     d44:	5d                   	pop    %rbp
     d45:	41 5c                	pop    %r12
     d47:	41 5d                	pop    %r13
     d49:	41 5e                	pop    %r14
     d4b:	41 5f                	pop    %r15
     d4d:	c3                   	retq   
     d4e:	66 90                	xchg   %ax,%ax
     d50:	48 8b 54 24 18       	mov    0x18(%rsp),%rdx
     d55:	c4 e2 fb f6 51 20    	mulx   0x20(%rcx),%rax,%rdx
     d5b:	48 03 47 20          	add    0x20(%rdi),%rax
     d5f:	48 89 d6             	mov    %rdx,%rsi
     d62:	0f 92 c3             	setb   %bl
     d65:	49 83 f9 01          	cmp    $0x1,%r9
     d69:	0f 86 94 00 00 00    	jbe    e03 <bigint_mul_add_rshift_inplace_x2+0x343>
     d6f:	48 8d 44 24 38       	lea    0x38(%rsp),%rax
     d74:	48 8b 54 24 18       	mov    0x18(%rsp),%rdx
     d79:	41 ba 01 00 00 00    	mov    $0x1,%r10d
     d7f:	45 31 db             	xor    %r11d,%r11d
     d82:	49 89 c0             	mov    %rax,%r8
     d85:	b8 01 00 00 00       	mov    $0x1,%eax
     d8a:	66 0f 1f 44 00 00    	nopw   0x0(%rax,%rax,1)
     d90:	48 83 c0 04          	add    $0x4,%rax
     d94:	41 80 c3 ff          	add    $0xff,%r11b
     d98:	c4 62 93 f6 34 c1    	mulx   (%rcx,%rax,8),%r13,%r14
     d9e:	4c 11 ee             	adc    %r13,%rsi
     da1:	49 89 30             	mov    %rsi,(%r8)
     da4:	41 0f 92 c3          	setb   %r11b
     da8:	48 8b 04 c7          	mov    (%rdi,%rax,8),%rax
     dac:	80 c3 ff             	add    $0xff,%bl
     daf:	48 13 44 24 38       	adc    0x38(%rsp),%rax
     db4:	41 8d 72 ff          	lea    -0x1(%r10),%esi
     db8:	48 89 44 f7 20       	mov    %rax,0x20(%rdi,%rsi,8)
     dbd:	41 8d 42 01          	lea    0x1(%r10),%eax
     dc1:	0f 92 c3             	setb   %bl
     dc4:	4c 89 f6             	mov    %r14,%rsi
     dc7:	49 39 c1             	cmp    %rax,%r9
     dca:	49 89 c2             	mov    %rax,%r10
     dcd:	77 c1                	ja     d90 <bigint_mul_add_rshift_inplace_x2+0x2d0>
     dcf:	4c 89 f2             	mov    %r14,%rdx
     dd2:	45 0f b6 db          	movzbl %r11b,%r11d
     dd6:	44 89 de             	mov    %r11d,%esi
     dd9:	31 c0                	xor    %eax,%eax
     ddb:	40 80 c6 ff          	add    $0xff,%sil
     ddf:	48 11 c2             	adc    %rax,%rdx
     de2:	4a 8d 04 cf          	lea    (%rdi,%r9,8),%rax
     de6:	80 c3 ff             	add    $0xff,%bl
     de9:	e9 3e ff ff ff       	jmpq   d2c <bigint_mul_add_rshift_inplace_x2+0x26c>
     dee:	45 31 d2             	xor    %r10d,%r10d
     df1:	e9 22 ff ff ff       	jmpq   d18 <bigint_mul_add_rshift_inplace_x2+0x258>
     df6:	4d 89 d6             	mov    %r10,%r14
     df9:	31 c0                	xor    %eax,%eax
     dfb:	45 31 ed             	xor    %r13d,%r13d
     dfe:	e9 35 fe ff ff       	jmpq   c38 <bigint_mul_add_rshift_inplace_x2+0x178>
     e03:	45 31 db             	xor    %r11d,%r11d
     e06:	eb ce                	jmp    dd6 <bigint_mul_add_rshift_inplace_x2+0x316>
     e08:	0f 1f 84 00 00 00 00 	nopl   0x0(%rax,%rax,1)
     e0f:	00 

0000000000000e10 <bigint_mul_add_inplace_x2>:
     e10:	41 57                	push   %r15
     e12:	41 56                	push   %r14
     e14:	48 85 d2             	test   %rdx,%rdx
     e17:	41 55                	push   %r13
     e19:	41 54                	push   %r12
     e1b:	55                   	push   %rbp
     e1c:	53                   	push   %rbx
     e1d:	48 89 54 24 b8       	mov    %rdx,-0x48(%rsp)
     e22:	4c 89 44 24 c0       	mov    %r8,-0x40(%rsp)
     e27:	74 08                	je     e31 <bigint_mul_add_inplace_x2+0x21>
     e29:	4d 85 c0             	test   %r8,%r8
     e2c:	4d 89 c6             	mov    %r8,%r14
     e2f:	75 27                	jne    e58 <bigint_mul_add_inplace_x2+0x48>
     e31:	48 83 7c 24 b8 00    	cmpq   $0x0,-0x48(%rsp)
     e37:	0f 85 73 01 00 00    	jne    fb0 <bigint_mul_add_inplace_x2+0x1a0>
     e3d:	48 83 7c 24 c0 00    	cmpq   $0x0,-0x40(%rsp)
     e43:	0f 85 27 02 00 00    	jne    1070 <bigint_mul_add_inplace_x2+0x260>
     e49:	5b                   	pop    %rbx
     e4a:	5d                   	pop    %rbp
     e4b:	41 5c                	pop    %r12
     e4d:	41 5d                	pop    %r13
     e4f:	41 5e                	pop    %r14
     e51:	41 5f                	pop    %r15
     e53:	c3                   	retq   
     e54:	0f 1f 40 00          	nopl   0x0(%rax)
     e58:	c4 e2 fb f6 56 20    	mulx   0x20(%rsi),%rax,%rdx
     e5e:	48 89 c3             	mov    %rax,%rbx
     e61:	48 03 5f 20          	add    0x20(%rdi),%rbx
     e65:	49 89 d2             	mov    %rdx,%r10
     e68:	4c 89 f2             	mov    %r14,%rdx
     e6b:	c4 e2 fb f6 51 20    	mulx   0x20(%rcx),%rax,%rdx
     e71:	49 89 d3             	mov    %rdx,%r11
     e74:	41 0f 92 c0          	setb   %r8b
     e78:	48 01 d8             	add    %rbx,%rax
     e7b:	41 0f 92 c4          	setb   %r12b
     e7f:	49 83 f9 01          	cmp    $0x1,%r9
     e83:	48 89 47 20          	mov    %rax,0x20(%rdi)
     e87:	0f 86 8a 02 00 00    	jbe    1117 <bigint_mul_add_inplace_x2+0x307>
     e8d:	48 8d 44 24 e0       	lea    -0x20(%rsp),%rax
     e92:	41 bd 01 00 00 00    	mov    $0x1,%r13d
     e98:	31 ed                	xor    %ebp,%ebp
     e9a:	45 31 ff             	xor    %r15d,%r15d
     e9d:	bb 01 00 00 00       	mov    $0x1,%ebx
     ea2:	49 89 fe             	mov    %rdi,%r14
     ea5:	48 89 44 24 c8       	mov    %rax,-0x38(%rsp)
     eaa:	48 8d 44 24 e8       	lea    -0x18(%rsp),%rax
     eaf:	48 89 44 24 d0       	mov    %rax,-0x30(%rsp)
     eb4:	4c 89 d0             	mov    %r10,%rax
     eb7:	49 89 ca             	mov    %rcx,%r10
     eba:	48 89 f1             	mov    %rsi,%rcx
     ebd:	0f 1f 00             	nopl   (%rax)
     ec0:	48 8b 54 24 b8       	mov    -0x48(%rsp),%rdx
     ec5:	48 83 c3 04          	add    $0x4,%rbx
     ec9:	41 80 c7 ff          	add    $0xff,%r15b
     ecd:	c4 e2 cb f6 3c d9    	mulx   (%rcx,%rbx,8),%rsi,%rdi
     ed3:	48 89 74 24 a8       	mov    %rsi,-0x58(%rsp)
     ed8:	48 8b 74 24 a8       	mov    -0x58(%rsp),%rsi
     edd:	48 11 c6             	adc    %rax,%rsi
     ee0:	48 8b 44 24 c8       	mov    -0x38(%rsp),%rax
     ee5:	41 0f 92 c7          	setb   %r15b
     ee9:	40 80 c5 ff          	add    $0xff,%bpl
     eed:	48 89 30             	mov    %rsi,(%rax)
     ef0:	48 8b 54 24 c0       	mov    -0x40(%rsp),%rdx
     ef5:	48 8b 74 24 d0       	mov    -0x30(%rsp),%rsi
     efa:	c4 c2 fb f6 14 da    	mulx   (%r10,%rbx,8),%rax,%rdx
     f00:	48 89 44 24 a8       	mov    %rax,-0x58(%rsp)
     f05:	48 8b 44 24 a8       	mov    -0x58(%rsp),%rax
     f0a:	48 89 54 24 b0       	mov    %rdx,-0x50(%rsp)
     f0f:	4c 11 d8             	adc    %r11,%rax
     f12:	49 89 d3             	mov    %rdx,%r11
     f15:	48 89 06             	mov    %rax,(%rsi)
     f18:	40 0f 92 c5          	setb   %bpl
     f1c:	49 8b 04 de          	mov    (%r14,%rbx,8),%rax
     f20:	41 80 c0 ff          	add    $0xff,%r8b
     f24:	48 13 44 24 e0       	adc    -0x20(%rsp),%rax
     f29:	41 0f 92 c0          	setb   %r8b
     f2d:	41 80 c4 ff          	add    $0xff,%r12b
     f31:	48 13 44 24 e8       	adc    -0x18(%rsp),%rax
     f36:	49 89 04 de          	mov    %rax,(%r14,%rbx,8)
     f3a:	41 8d 5d 01          	lea    0x1(%r13),%ebx
     f3e:	41 0f 92 c4          	setb   %r12b
     f42:	48 89 f8             	mov    %rdi,%rax
     f45:	4c 39 cb             	cmp    %r9,%rbx
     f48:	49 89 dd             	mov    %rbx,%r13
     f4b:	0f 82 6f ff ff ff    	jb     ec0 <bigint_mul_add_inplace_x2+0xb0>
     f51:	4c 89 f0             	mov    %r14,%rax
     f54:	45 0f b6 ff          	movzbl %r15b,%r15d
     f58:	49 89 fe             	mov    %rdi,%r14
     f5b:	48 89 c7             	mov    %rax,%rdi
     f5e:	40 0f b6 c5          	movzbl %bpl,%eax
     f62:	44 89 fe             	mov    %r15d,%esi
     f65:	31 c9                	xor    %ecx,%ecx
     f67:	40 80 c6 ff          	add    $0xff,%sil
     f6b:	4a 8d 34 cf          	lea    (%rdi,%r9,8),%rsi
     f6f:	49 11 ce             	adc    %rcx,%r14
     f72:	41 80 c0 ff          	add    $0xff,%r8b
     f76:	4c 13 76 20          	adc    0x20(%rsi),%r14
     f7a:	41 0f 92 c0          	setb   %r8b
     f7e:	04 ff                	add    $0xff,%al
     f80:	48 11 ca             	adc    %rcx,%rdx
     f83:	41 80 c4 ff          	add    $0xff,%r12b
     f87:	4c 11 f2             	adc    %r14,%rdx
     f8a:	0f 92 c0             	setb   %al
     f8d:	4a 89 54 cf 20       	mov    %rdx,0x20(%rdi,%r9,8)
     f92:	41 0f b6 d0          	movzbl %r8b,%edx
     f96:	0f b6 c0             	movzbl %al,%eax
     f99:	48 01 d0             	add    %rdx,%rax
     f9c:	48 01 46 28          	add    %rax,0x28(%rsi)
     fa0:	5b                   	pop    %rbx
     fa1:	5d                   	pop    %rbp
     fa2:	41 5c                	pop    %r12
     fa4:	41 5d                	pop    %r13
     fa6:	41 5e                	pop    %r14
     fa8:	41 5f                	pop    %r15
     faa:	c3                   	retq   
     fab:	0f 1f 44 00 00       	nopl   0x0(%rax,%rax,1)
     fb0:	48 8b 54 24 b8       	mov    -0x48(%rsp),%rdx
     fb5:	c4 e2 fb f6 56 20    	mulx   0x20(%rsi),%rax,%rdx
     fbb:	48 03 47 20          	add    0x20(%rdi),%rax
     fbf:	48 89 d1             	mov    %rdx,%rcx
     fc2:	41 0f 92 c3          	setb   %r11b
     fc6:	49 83 f9 01          	cmp    $0x1,%r9
     fca:	48 89 47 20          	mov    %rax,0x20(%rdi)
     fce:	0f 86 3b 01 00 00    	jbe    110f <bigint_mul_add_inplace_x2+0x2ff>
     fd4:	48 8d 44 24 e0       	lea    -0x20(%rsp),%rax
     fd9:	48 8b 54 24 b8       	mov    -0x48(%rsp),%rdx
     fde:	41 b8 01 00 00 00    	mov    $0x1,%r8d
     fe4:	bb 01 00 00 00       	mov    $0x1,%ebx
     fe9:	45 31 d2             	xor    %r10d,%r10d
     fec:	49 89 c6             	mov    %rax,%r14
     fef:	4c 89 c0             	mov    %r8,%rax
     ff2:	4d 89 f0             	mov    %r14,%r8
     ff5:	0f 1f 00             	nopl   (%rax)
     ff8:	48 83 c0 04          	add    $0x4,%rax
     ffc:	41 80 c2 ff          	add    $0xff,%r10b
    1000:	c4 62 93 f6 34 c6    	mulx   (%rsi,%rax,8),%r13,%r14
    1006:	4c 11 e9             	adc    %r13,%rcx
    1009:	49 89 08             	mov    %rcx,(%r8)
    100c:	41 0f 92 c2          	setb   %r10b
    1010:	48 8b 0c c7          	mov    (%rdi,%rax,8),%rcx
    1014:	41 80 c3 ff          	add    $0xff,%r11b
    1018:	48 13 4c 24 e0       	adc    -0x20(%rsp),%rcx
    101d:	48 89 0c c7          	mov    %rcx,(%rdi,%rax,8)
    1021:	8d 43 01             	lea    0x1(%rbx),%eax
    1024:	41 0f 92 c3          	setb   %r11b
    1028:	4c 89 f1             	mov    %r14,%rcx
    102b:	49 39 c1             	cmp    %rax,%r9
    102e:	48 89 c3             	mov    %rax,%rbx
    1031:	77 c5                	ja     ff8 <bigint_mul_add_inplace_x2+0x1e8>
    1033:	4c 89 f2             	mov    %r14,%rdx
    1036:	45 0f b6 d2          	movzbl %r10b,%r10d
    103a:	44 89 d1             	mov    %r10d,%ecx
    103d:	31 c0                	xor    %eax,%eax
    103f:	80 c1 ff             	add    $0xff,%cl
    1042:	48 11 c2             	adc    %rax,%rdx
    1045:	4a 8d 04 cf          	lea    (%rdi,%r9,8),%rax
    1049:	41 80 c3 ff          	add    $0xff,%r11b
    104d:	48 13 50 20          	adc    0x20(%rax),%rdx
    1051:	4a 89 54 cf 20       	mov    %rdx,0x20(%rdi,%r9,8)
    1056:	0f 92 c2             	setb   %dl
    1059:	0f b6 d2             	movzbl %dl,%edx
    105c:	48 01 50 28          	add    %rdx,0x28(%rax)
    1060:	5b                   	pop    %rbx
    1061:	5d                   	pop    %rbp
    1062:	41 5c                	pop    %r12
    1064:	41 5d                	pop    %r13
    1066:	41 5e                	pop    %r14
    1068:	41 5f                	pop    %r15
    106a:	c3                   	retq   
    106b:	0f 1f 44 00 00       	nopl   0x0(%rax,%rax,1)
    1070:	48 8b 54 24 c0       	mov    -0x40(%rsp),%rdx
    1075:	c4 e2 fb f6 51 20    	mulx   0x20(%rcx),%rax,%rdx
    107b:	48 03 47 20          	add    0x20(%rdi),%rax
    107f:	48 89 d6             	mov    %rdx,%rsi
    1082:	0f 92 c3             	setb   %bl
    1085:	49 83 f9 01          	cmp    $0x1,%r9
    1089:	48 89 47 20          	mov    %rax,0x20(%rdi)
    108d:	0f 86 91 00 00 00    	jbe    1124 <bigint_mul_add_inplace_x2+0x314>
    1093:	48 8d 44 24 e8       	lea    -0x18(%rsp),%rax
    1098:	48 8b 54 24 c0       	mov    -0x40(%rsp),%rdx
    109d:	41 ba 01 00 00 00    	mov    $0x1,%r10d
    10a3:	bd 01 00 00 00       	mov    $0x1,%ebp
    10a8:	45 31 db             	xor    %r11d,%r11d
    10ab:	49 89 c0             	mov    %rax,%r8
    10ae:	4c 89 d0             	mov    %r10,%rax
    10b1:	0f 1f 80 00 00 00 00 	nopl   0x0(%rax)
    10b8:	48 83 c0 04          	add    $0x4,%rax
    10bc:	41 80 c3 ff          	add    $0xff,%r11b
    10c0:	c4 62 93 f6 34 c1    	mulx   (%rcx,%rax,8),%r13,%r14
    10c6:	4c 11 ee             	adc    %r13,%rsi
    10c9:	49 89 30             	mov    %rsi,(%r8)
    10cc:	41 0f 92 c3          	setb   %r11b
    10d0:	48 8b 34 c7          	mov    (%rdi,%rax,8),%rsi
    10d4:	80 c3 ff             	add    $0xff,%bl
    10d7:	48 13 74 24 e8       	adc    -0x18(%rsp),%rsi
    10dc:	48 89 34 c7          	mov    %rsi,(%rdi,%rax,8)
    10e0:	8d 45 01             	lea    0x1(%rbp),%eax
    10e3:	0f 92 c3             	setb   %bl
    10e6:	4c 89 f6             	mov    %r14,%rsi
    10e9:	49 39 c1             	cmp    %rax,%r9
    10ec:	48 89 c5             	mov    %rax,%rbp
    10ef:	77 c7                	ja     10b8 <bigint_mul_add_inplace_x2+0x2a8>
    10f1:	4c 89 f2             	mov    %r14,%rdx
    10f4:	45 0f b6 db          	movzbl %r11b,%r11d
    10f8:	44 89 d9             	mov    %r11d,%ecx
    10fb:	31 c0                	xor    %eax,%eax
    10fd:	80 c1 ff             	add    $0xff,%cl
    1100:	48 11 c2             	adc    %rax,%rdx
    1103:	4a 8d 04 cf          	lea    (%rdi,%r9,8),%rax
    1107:	80 c3 ff             	add    $0xff,%bl
    110a:	e9 3e ff ff ff       	jmpq   104d <bigint_mul_add_inplace_x2+0x23d>
    110f:	45 31 d2             	xor    %r10d,%r10d
    1112:	e9 23 ff ff ff       	jmpq   103a <bigint_mul_add_inplace_x2+0x22a>
    1117:	4d 89 d6             	mov    %r10,%r14
    111a:	31 c0                	xor    %eax,%eax
    111c:	45 31 ff             	xor    %r15d,%r15d
    111f:	e9 3e fe ff ff       	jmpq   f62 <bigint_mul_add_inplace_x2+0x152>
    1124:	45 31 db             	xor    %r11d,%r11d
    1127:	eb cf                	jmp    10f8 <bigint_mul_add_inplace_x2+0x2e8>
    1129:	0f 1f 80 00 00 00 00 	nopl   0x0(%rax)

0000000000001130 <bigint_mul_add_inplace>:
    1130:	48 85 d2             	test   %rdx,%rdx
    1133:	75 0b                	jne    1140 <bigint_mul_add_inplace+0x10>
    1135:	c3                   	retq   
    1136:	66 2e 0f 1f 84 00 00 	nopw   %cs:0x0(%rax,%rax,1)
    113d:	00 00 00 
    1140:	41 57                	push   %r15
    1142:	41 56                	push   %r14
    1144:	55                   	push   %rbp
    1145:	53                   	push   %rbx
    1146:	c4 62 b3 f6 56 20    	mulx   0x20(%rsi),%r9,%r10
    114c:	4c 03 4f 20          	add    0x20(%rdi),%r9
    1150:	4d 89 d0             	mov    %r10,%r8
    1153:	0f 92 c3             	setb   %bl
    1156:	48 83 f9 01          	cmp    $0x1,%rcx
    115a:	4c 89 4f 20          	mov    %r9,0x20(%rdi)
    115e:	76 7f                	jbe    11df <bigint_mul_add_inplace+0xaf>
    1160:	bd 01 00 00 00       	mov    $0x1,%ebp
    1165:	45 31 db             	xor    %r11d,%r11d
    1168:	b8 01 00 00 00       	mov    $0x1,%eax
    116d:	0f 1f 00             	nopl   (%rax)
    1170:	48 83 c0 04          	add    $0x4,%rax
    1174:	41 80 c3 ff          	add    $0xff,%r11b
    1178:	c4 62 8b f6 3c c6    	mulx   (%rsi,%rax,8),%r14,%r15
    117e:	4d 11 f0             	adc    %r14,%r8
    1181:	4d 89 fa             	mov    %r15,%r10
    1184:	4c 89 44 24 f0       	mov    %r8,-0x10(%rsp)
    1189:	41 0f 92 c3          	setb   %r11b
    118d:	4c 8b 04 c7          	mov    (%rdi,%rax,8),%r8
    1191:	80 c3 ff             	add    $0xff,%bl
    1194:	4c 13 44 24 f0       	adc    -0x10(%rsp),%r8
    1199:	4c 89 04 c7          	mov    %r8,(%rdi,%rax,8)
    119d:	8d 45 01             	lea    0x1(%rbp),%eax
    11a0:	0f 92 c3             	setb   %bl
    11a3:	4d 89 f8             	mov    %r15,%r8
    11a6:	48 39 c8             	cmp    %rcx,%rax
    11a9:	48 89 c5             	mov    %rax,%rbp
    11ac:	72 c2                	jb     1170 <bigint_mul_add_inplace+0x40>
    11ae:	45 0f b6 db          	movzbl %r11b,%r11d
    11b2:	44 89 de             	mov    %r11d,%esi
    11b5:	31 c0                	xor    %eax,%eax
    11b7:	40 80 c6 ff          	add    $0xff,%sil
    11bb:	49 11 c2             	adc    %rax,%r10
    11be:	48 8d 04 cf          	lea    (%rdi,%rcx,8),%rax
    11c2:	80 c3 ff             	add    $0xff,%bl
    11c5:	4c 13 50 20          	adc    0x20(%rax),%r10
    11c9:	0f 92 c2             	setb   %dl
    11cc:	4c 89 54 cf 20       	mov    %r10,0x20(%rdi,%rcx,8)
    11d1:	0f b6 d2             	movzbl %dl,%edx
    11d4:	48 01 50 28          	add    %rdx,0x28(%rax)
    11d8:	5b                   	pop    %rbx
    11d9:	5d                   	pop    %rbp
    11da:	41 5e                	pop    %r14
    11dc:	41 5f                	pop    %r15
    11de:	c3                   	retq   
    11df:	45 31 db             	xor    %r11d,%r11d
    11e2:	eb ce                	jmp    11b2 <bigint_mul_add_inplace+0x82>
    11e4:	66 66 66 2e 0f 1f 84 	data32 data32 nopw %cs:0x0(%rax,%rax,1)
    11eb:	00 00 00 00 00 

00000000000011f0 <bigint_multiply>:
    11f0:	48 8b 06             	mov    (%rsi),%rax
    11f3:	48 85 d2             	test   %rdx,%rdx
    11f6:	48 89 07             	mov    %rax,(%rdi)
    11f9:	74 75                	je     1270 <bigint_multiply+0x80>
    11fb:	c4 62 b3 f6 56 20    	mulx   0x20(%rsi),%r9,%r10
    1201:	4c 89 4f 20          	mov    %r9,0x20(%rdi)
    1205:	4c 8b 0e             	mov    (%rsi),%r9
    1208:	4c 89 d0             	mov    %r10,%rax
    120b:	49 83 f9 01          	cmp    $0x1,%r9
    120f:	76 6b                	jbe    127c <bigint_multiply+0x8c>
    1211:	41 bb 01 00 00 00    	mov    $0x1,%r11d
    1217:	45 31 c0             	xor    %r8d,%r8d
    121a:	b9 01 00 00 00       	mov    $0x1,%ecx
    121f:	90                   	nop
    1220:	48 83 c1 04          	add    $0x4,%rcx
    1224:	41 80 c0 ff          	add    $0xff,%r8b
    1228:	c4 62 b3 f6 14 ce    	mulx   (%rsi,%rcx,8),%r9,%r10
    122e:	4c 11 c8             	adc    %r9,%rax
    1231:	48 89 04 cf          	mov    %rax,(%rdi,%rcx,8)
    1235:	4c 8b 0e             	mov    (%rsi),%r9
    1238:	41 8d 4b 01          	lea    0x1(%r11),%ecx
    123c:	41 0f 92 c0          	setb   %r8b
    1240:	4c 89 d0             	mov    %r10,%rax
    1243:	49 89 cb             	mov    %rcx,%r11
    1246:	4c 39 c9             	cmp    %r9,%rcx
    1249:	72 d5                	jb     1220 <bigint_multiply+0x30>
    124b:	45 0f b6 c0          	movzbl %r8b,%r8d
    124f:	44 89 c2             	mov    %r8d,%edx
    1252:	31 c0                	xor    %eax,%eax
    1254:	80 c2 ff             	add    $0xff,%dl
    1257:	49 11 c2             	adc    %rax,%r10
    125a:	4e 89 54 cf 20       	mov    %r10,0x20(%rdi,%r9,8)
    125f:	48 8b 06             	mov    (%rsi),%rax
    1262:	48 83 7c c7 20 00    	cmpq   $0x0,0x20(%rdi,%rax,8)
    1268:	74 04                	je     126e <bigint_multiply+0x7e>
    126a:	48 83 07 01          	addq   $0x1,(%rdi)
    126e:	f3 c3                	repz retq 
    1270:	48 8b 35 00 00 00 00 	mov    0x0(%rip),%rsi        # 1277 <bigint_multiply+0x87>
    1277:	e9 00 00 00 00       	jmpq   127c <bigint_multiply+0x8c>
    127c:	45 31 c0             	xor    %r8d,%r8d
    127f:	eb ce                	jmp    124f <bigint_multiply+0x5f>
    1281:	66 66 66 66 66 66 2e 	data32 data32 data32 data32 data32 nopw %cs:0x0(%rax,%rax,1)
    1288:	0f 1f 84 00 00 00 00 
    128f:	00 

0000000000001290 <bigint_multiply_inplace>:
    1290:	48 85 f6             	test   %rsi,%rsi
    1293:	0f 84 87 00 00 00    	je     1320 <bigint_multiply_inplace+0x90>
    1299:	55                   	push   %rbp
    129a:	53                   	push   %rbx
    129b:	48 89 f2             	mov    %rsi,%rdx
    129e:	48 8b 1f             	mov    (%rdi),%rbx
    12a1:	c4 e2 fb f6 57 20    	mulx   0x20(%rdi),%rax,%rdx
    12a7:	45 31 c9             	xor    %r9d,%r9d
    12aa:	49 89 c2             	mov    %rax,%r10
    12ad:	31 c0                	xor    %eax,%eax
    12af:	49 89 d3             	mov    %rdx,%r11
    12b2:	b9 01 00 00 00       	mov    $0x1,%ecx
    12b7:	48 89 dd             	mov    %rbx,%rbp
    12ba:	48 83 c5 01          	add    $0x1,%rbp
    12be:	75 23                	jne    12e3 <bigint_multiply_inplace+0x53>
    12c0:	eb 55                	jmp    1317 <bigint_multiply_inplace+0x87>
    12c2:	66 0f 1f 44 00 00    	nopw   0x0(%rax,%rax,1)
    12c8:	48 89 f2             	mov    %rsi,%rdx
    12cb:	83 c1 01             	add    $0x1,%ecx
    12ce:	4c 39 c5             	cmp    %r8,%rbp
    12d1:	c4 a2 fb f6 54 c7 20 	mulx   0x20(%rdi,%r8,8),%rax,%rdx
    12d8:	49 89 c2             	mov    %rax,%r10
    12db:	4c 89 d8             	mov    %r11,%rax
    12de:	76 37                	jbe    1317 <bigint_multiply_inplace+0x87>
    12e0:	49 89 d3             	mov    %rdx,%r11
    12e3:	41 80 c1 ff          	add    $0xff,%r9b
    12e7:	44 8d 41 ff          	lea    -0x1(%rcx),%r8d
    12eb:	4c 11 d0             	adc    %r10,%rax
    12ee:	41 0f 92 c1          	setb   %r9b
    12f2:	48 85 c0             	test   %rax,%rax
    12f5:	4a 89 44 c7 20       	mov    %rax,0x20(%rdi,%r8,8)
    12fa:	41 89 c8             	mov    %ecx,%r8d
    12fd:	74 03                	je     1302 <bigint_multiply_inplace+0x72>
    12ff:	4c 89 07             	mov    %r8,(%rdi)
    1302:	4c 39 c3             	cmp    %r8,%rbx
    1305:	77 c1                	ja     12c8 <bigint_multiply_inplace+0x38>
    1307:	31 d2                	xor    %edx,%edx
    1309:	45 31 d2             	xor    %r10d,%r10d
    130c:	83 c1 01             	add    $0x1,%ecx
    130f:	4c 39 c5             	cmp    %r8,%rbp
    1312:	4c 89 d8             	mov    %r11,%rax
    1315:	77 c9                	ja     12e0 <bigint_multiply_inplace+0x50>
    1317:	5b                   	pop    %rbx
    1318:	5d                   	pop    %rbp
    1319:	c3                   	retq   
    131a:	66 0f 1f 44 00 00    	nopw   0x0(%rax,%rax,1)
    1320:	48 8b 35 00 00 00 00 	mov    0x0(%rip),%rsi        # 1327 <bigint_multiply_inplace+0x97>
    1327:	e9 00 00 00 00       	jmpq   132c <bigint_multiply_inplace+0x9c>
    132c:	0f 1f 40 00          	nopl   0x0(%rax)

0000000000001330 <bigint_left_shift_inplace>:
    1330:	4c 8b 07             	mov    (%rdi),%r8
    1333:	31 c0                	xor    %eax,%eax
    1335:	31 f6                	xor    %esi,%esi
    1337:	4d 85 c0             	test   %r8,%r8
    133a:	75 07                	jne    1343 <bigint_left_shift_inplace+0x13>
    133c:	eb 5c                	jmp    139a <bigint_left_shift_inplace+0x6a>
    133e:	66 90                	xchg   %ax,%ax
    1340:	48 89 c8             	mov    %rcx,%rax
    1343:	48 8b 54 c7 20       	mov    0x20(%rdi,%rax,8),%rdx
    1348:	48 8d 0c 56          	lea    (%rsi,%rdx,2),%rcx
    134c:	48 89 d6             	mov    %rdx,%rsi
    134f:	48 c1 ee 3f          	shr    $0x3f,%rsi
    1353:	48 89 4c c7 20       	mov    %rcx,0x20(%rdi,%rax,8)
    1358:	48 8d 48 01          	lea    0x1(%rax),%rcx
    135c:	4c 39 c1             	cmp    %r8,%rcx
    135f:	75 df                	jne    1340 <bigint_left_shift_inplace+0x10>
    1361:	48 85 f6             	test   %rsi,%rsi
    1364:	75 0a                	jne    1370 <bigint_left_shift_inplace+0x40>
    1366:	f3 c3                	repz retq 
    1368:	0f 1f 84 00 00 00 00 	nopl   0x0(%rax,%rax,1)
    136f:	00 
    1370:	48 8d 50 05          	lea    0x5(%rax),%rdx
    1374:	48 83 c0 02          	add    $0x2,%rax
    1378:	31 f6                	xor    %esi,%esi
    137a:	48 c7 04 d7 01 00 00 	movq   $0x1,(%rdi,%rdx,8)
    1381:	00 
    1382:	48 83 e2 fc          	and    $0xfffffffffffffffc,%rdx
    1386:	48 89 07             	mov    %rax,(%rdi)
    1389:	48 29 c2             	sub    %rax,%rdx
    138c:	48 8d 7c c7 20       	lea    0x20(%rdi,%rax,8),%rdi
    1391:	48 c1 e2 03          	shl    $0x3,%rdx
    1395:	e9 00 00 00 00       	jmpq   139a <bigint_left_shift_inplace+0x6a>
    139a:	f3 c3                	repz retq 
    139c:	0f 1f 40 00          	nopl   0x0(%rax)

00000000000013a0 <bigint_right_shift_inplace>:
    13a0:	4c 8b 07             	mov    (%rdi),%r8
    13a3:	31 f6                	xor    %esi,%esi
    13a5:	4d 85 c0             	test   %r8,%r8
    13a8:	4c 89 c0             	mov    %r8,%rax
    13ab:	74 3b                	je     13e8 <bigint_right_shift_inplace+0x48>
    13ad:	0f 1f 00             	nopl   (%rax)
    13b0:	48 83 e8 01          	sub    $0x1,%rax
    13b4:	48 8b 4c c7 20       	mov    0x20(%rdi,%rax,8),%rcx
    13b9:	48 89 ca             	mov    %rcx,%rdx
    13bc:	48 d1 ea             	shr    %rdx
    13bf:	48 01 f2             	add    %rsi,%rdx
    13c2:	48 89 ce             	mov    %rcx,%rsi
    13c5:	48 c1 e6 3f          	shl    $0x3f,%rsi
    13c9:	48 85 c0             	test   %rax,%rax
    13cc:	48 89 54 c7 20       	mov    %rdx,0x20(%rdi,%rax,8)
    13d1:	75 dd                	jne    13b0 <bigint_right_shift_inplace+0x10>
    13d3:	4a 83 7c c7 18 00    	cmpq   $0x0,0x18(%rdi,%r8,8)
    13d9:	49 8d 40 ff          	lea    -0x1(%r8),%rax
    13dd:	75 09                	jne    13e8 <bigint_right_shift_inplace+0x48>
    13df:	49 83 f8 01          	cmp    $0x1,%r8
    13e3:	76 03                	jbe    13e8 <bigint_right_shift_inplace+0x48>
    13e5:	48 89 07             	mov    %rax,(%rdi)
    13e8:	f3 c3                	repz retq 
    13ea:	66 0f 1f 44 00 00    	nopw   0x0(%rax,%rax,1)

00000000000013f0 <bigint_right_shift_inplace_64>:
    13f0:	55                   	push   %rbp
    13f1:	53                   	push   %rbx
    13f2:	48 83 ec 08          	sub    $0x8,%rsp
    13f6:	48 8b 2f             	mov    (%rdi),%rbp
    13f9:	48 85 ed             	test   %rbp,%rbp
    13fc:	74 3a                	je     1438 <bigint_right_shift_inplace_64+0x48>
    13fe:	48 89 fb             	mov    %rdi,%rbx
    1401:	48 8d 77 28          	lea    0x28(%rdi),%rsi
    1405:	48 8d 14 ed 00 00 00 	lea    0x0(,%rbp,8),%rdx
    140c:	00 
    140d:	48 8d 7f 20          	lea    0x20(%rdi),%rdi
    1411:	e8 00 00 00 00       	callq  1416 <bigint_right_shift_inplace_64+0x26>
    1416:	48 83 fd 01          	cmp    $0x1,%rbp
    141a:	48 8d 45 ff          	lea    -0x1(%rbp),%rax
    141e:	48 c7 44 eb 18 00 00 	movq   $0x0,0x18(%rbx,%rbp,8)
    1425:	00 00 
    1427:	76 03                	jbe    142c <bigint_right_shift_inplace_64+0x3c>
    1429:	48 89 03             	mov    %rax,(%rbx)
    142c:	48 83 c4 08          	add    $0x8,%rsp
    1430:	5b                   	pop    %rbx
    1431:	5d                   	pop    %rbp
    1432:	c3                   	retq   
    1433:	0f 1f 44 00 00       	nopl   0x0(%rax,%rax,1)
    1438:	48 c7 47 18 00 00 00 	movq   $0x0,0x18(%rdi)
    143f:	00 
    1440:	eb ea                	jmp    142c <bigint_right_shift_inplace_64+0x3c>
    1442:	66 66 66 66 66 2e 0f 	data32 data32 data32 data32 nopw %cs:0x0(%rax,%rax,1)
    1449:	1f 84 00 00 00 00 00 

0000000000001450 <bigint_modulo_inplace>:
    1450:	41 54                	push   %r12
    1452:	45 31 e4             	xor    %r12d,%r12d
    1455:	55                   	push   %rbp
    1456:	48 89 f5             	mov    %rsi,%rbp
    1459:	53                   	push   %rbx
    145a:	48 89 fb             	mov    %rdi,%rbx
    145d:	0f 1f 00             	nopl   (%rax)
    1460:	48 89 de             	mov    %rbx,%rsi
    1463:	48 89 ef             	mov    %rbp,%rdi
    1466:	e8 00 00 00 00       	callq  146b <bigint_modulo_inplace+0x1b>
    146b:	85 c0                	test   %eax,%eax
    146d:	0f 85 ac 00 00 00    	jne    151f <bigint_modulo_inplace+0xcf>
    1473:	48 8b 33             	mov    (%rbx),%rsi
    1476:	31 c9                	xor    %ecx,%ecx
    1478:	31 c0                	xor    %eax,%eax
    147a:	48 8d 53 20          	lea    0x20(%rbx),%rdx
    147e:	48 85 f6             	test   %rsi,%rsi
    1481:	75 28                	jne    14ab <bigint_modulo_inplace+0x5b>
    1483:	eb db                	jmp    1460 <bigint_modulo_inplace+0x10>
    1485:	0f 1f 00             	nopl   (%rax)
    1488:	84 c9                	test   %cl,%cl
    148a:	74 4c                	je     14d8 <bigint_modulo_inplace+0x88>
    148c:	48 8b 32             	mov    (%rdx),%rsi
    148f:	80 c1 ff             	add    $0xff,%cl
    1492:	4c 19 e6             	sbb    %r12,%rsi
    1495:	48 89 32             	mov    %rsi,(%rdx)
    1498:	48 8b 33             	mov    (%rbx),%rsi
    149b:	0f 92 c1             	setb   %cl
    149e:	48 83 c0 01          	add    $0x1,%rax
    14a2:	48 83 c2 08          	add    $0x8,%rdx
    14a6:	48 39 f0             	cmp    %rsi,%rax
    14a9:	73 2d                	jae    14d8 <bigint_modulo_inplace+0x88>
    14ab:	48 39 45 00          	cmp    %rax,0x0(%rbp)
    14af:	76 d7                	jbe    1488 <bigint_modulo_inplace+0x38>
    14b1:	48 8b 32             	mov    (%rdx),%rsi
    14b4:	80 c1 ff             	add    $0xff,%cl
    14b7:	48 1b 74 c5 20       	sbb    0x20(%rbp,%rax,8),%rsi
    14bc:	48 89 32             	mov    %rsi,(%rdx)
    14bf:	48 8b 33             	mov    (%rbx),%rsi
    14c2:	0f 92 c1             	setb   %cl
    14c5:	48 83 c0 01          	add    $0x1,%rax
    14c9:	48 83 c2 08          	add    $0x8,%rdx
    14cd:	48 39 f0             	cmp    %rsi,%rax
    14d0:	72 d9                	jb     14ab <bigint_modulo_inplace+0x5b>
    14d2:	66 0f 1f 44 00 00    	nopw   0x0(%rax,%rax,1)
    14d8:	48 83 fe 01          	cmp    $0x1,%rsi
    14dc:	76 82                	jbe    1460 <bigint_modulo_inplace+0x10>
    14de:	48 83 7c f3 18 00    	cmpq   $0x0,0x18(%rbx,%rsi,8)
    14e4:	48 8d 46 ff          	lea    -0x1(%rsi),%rax
    14e8:	74 15                	je     14ff <bigint_modulo_inplace+0xaf>
    14ea:	e9 71 ff ff ff       	jmpq   1460 <bigint_modulo_inplace+0x10>
    14ef:	90                   	nop
    14f0:	48 8d 50 ff          	lea    -0x1(%rax),%rdx
    14f4:	48 83 7c d3 20 00    	cmpq   $0x0,0x20(%rbx,%rdx,8)
    14fa:	75 2c                	jne    1528 <bigint_modulo_inplace+0xd8>
    14fc:	48 89 d0             	mov    %rdx,%rax
    14ff:	48 83 f8 01          	cmp    $0x1,%rax
    1503:	75 eb                	jne    14f0 <bigint_modulo_inplace+0xa0>
    1505:	48 c7 03 01 00 00 00 	movq   $0x1,(%rbx)
    150c:	48 89 de             	mov    %rbx,%rsi
    150f:	48 89 ef             	mov    %rbp,%rdi
    1512:	e8 00 00 00 00       	callq  1517 <bigint_modulo_inplace+0xc7>
    1517:	85 c0                	test   %eax,%eax
    1519:	0f 84 54 ff ff ff    	je     1473 <bigint_modulo_inplace+0x23>
    151f:	5b                   	pop    %rbx
    1520:	5d                   	pop    %rbp
    1521:	41 5c                	pop    %r12
    1523:	c3                   	retq   
    1524:	0f 1f 40 00          	nopl   0x0(%rax)
    1528:	48 89 03             	mov    %rax,(%rbx)
    152b:	e9 30 ff ff ff       	jmpq   1460 <bigint_modulo_inplace+0x10>

0000000000001530 <bigint_add_inplace>:
    1530:	55                   	push   %rbp
    1531:	53                   	push   %rbx
    1532:	48 89 fd             	mov    %rdi,%rbp
    1535:	48 89 f3             	mov    %rsi,%rbx
    1538:	48 83 ec 08          	sub    $0x8,%rsp
    153c:	4c 8b 07             	mov    (%rdi),%r8
    153f:	48 8b 06             	mov    (%rsi),%rax
    1542:	49 39 c0             	cmp    %rax,%r8
    1545:	0f 82 7d 00 00 00    	jb     15c8 <bigint_add_inplace+0x98>
    154b:	31 f6                	xor    %esi,%esi
    154d:	31 c0                	xor    %eax,%eax
    154f:	31 ff                	xor    %edi,%edi
    1551:	4d 85 c0             	test   %r8,%r8
    1554:	48 8d 4d 20          	lea    0x20(%rbp),%rcx
    1558:	75 2d                	jne    1587 <bigint_add_inplace+0x57>
    155a:	eb 62                	jmp    15be <bigint_add_inplace+0x8e>
    155c:	0f 1f 40 00          	nopl   0x0(%rax)
    1560:	40 84 f6             	test   %sil,%sil
    1563:	74 59                	je     15be <bigint_add_inplace+0x8e>
    1565:	48 8b 11             	mov    (%rcx),%rdx
    1568:	40 80 c6 ff          	add    $0xff,%sil
    156c:	48 11 fa             	adc    %rdi,%rdx
    156f:	40 0f 92 c6          	setb   %sil
    1573:	48 89 11             	mov    %rdx,(%rcx)
    1576:	48 8b 55 00          	mov    0x0(%rbp),%rdx
    157a:	48 83 c0 01          	add    $0x1,%rax
    157e:	48 83 c1 08          	add    $0x8,%rcx
    1582:	48 39 c2             	cmp    %rax,%rdx
    1585:	76 21                	jbe    15a8 <bigint_add_inplace+0x78>
    1587:	48 3b 03             	cmp    (%rbx),%rax
    158a:	73 d4                	jae    1560 <bigint_add_inplace+0x30>
    158c:	40 80 c6 ff          	add    $0xff,%sil
    1590:	48 8b 11             	mov    (%rcx),%rdx
    1593:	48 13 54 c3 20       	adc    0x20(%rbx,%rax,8),%rdx
    1598:	40 0f 92 c6          	setb   %sil
    159c:	48 89 11             	mov    %rdx,(%rcx)
    159f:	eb d5                	jmp    1576 <bigint_add_inplace+0x46>
    15a1:	0f 1f 80 00 00 00 00 	nopl   0x0(%rax)
    15a8:	40 84 f6             	test   %sil,%sil
    15ab:	74 11                	je     15be <bigint_add_inplace+0x8e>
    15ad:	48 83 c2 01          	add    $0x1,%rdx
    15b1:	40 0f b6 f6          	movzbl %sil,%esi
    15b5:	48 89 55 00          	mov    %rdx,0x0(%rbp)
    15b9:	48 89 74 c5 20       	mov    %rsi,0x20(%rbp,%rax,8)
    15be:	48 83 c4 08          	add    $0x8,%rsp
    15c2:	5b                   	pop    %rbx
    15c3:	5d                   	pop    %rbp
    15c4:	c3                   	retq   
    15c5:	0f 1f 00             	nopl   (%rax)
    15c8:	48 8d 50 03          	lea    0x3(%rax),%rdx
    15cc:	4a 8d 7c c7 20       	lea    0x20(%rdi,%r8,8),%rdi
    15d1:	31 f6                	xor    %esi,%esi
    15d3:	48 83 e2 fc          	and    $0xfffffffffffffffc,%rdx
    15d7:	4c 29 c2             	sub    %r8,%rdx
    15da:	48 c1 e2 03          	shl    $0x3,%rdx
    15de:	e8 00 00 00 00       	callq  15e3 <bigint_add_inplace+0xb3>
    15e3:	4c 8b 03             	mov    (%rbx),%r8
    15e6:	4c 89 45 00          	mov    %r8,0x0(%rbp)
    15ea:	e9 5c ff ff ff       	jmpq   154b <bigint_add_inplace+0x1b>
    15ef:	90                   	nop

00000000000015f0 <bigint_sub_inplace>:
    15f0:	4c 8b 07             	mov    (%rdi),%r8
    15f3:	31 c9                	xor    %ecx,%ecx
    15f5:	31 c0                	xor    %eax,%eax
    15f7:	45 31 c9             	xor    %r9d,%r9d
    15fa:	48 8d 57 20          	lea    0x20(%rdi),%rdx
    15fe:	4d 85 c0             	test   %r8,%r8
    1601:	75 30                	jne    1633 <bigint_sub_inplace+0x43>
    1603:	e9 8c 00 00 00       	jmpq   1694 <bigint_sub_inplace+0xa4>
    1608:	0f 1f 84 00 00 00 00 	nopl   0x0(%rax,%rax,1)
    160f:	00 
    1610:	84 c9                	test   %cl,%cl
    1612:	74 4c                	je     1660 <bigint_sub_inplace+0x70>
    1614:	4c 8b 02             	mov    (%rdx),%r8
    1617:	80 c1 ff             	add    $0xff,%cl
    161a:	4d 19 c8             	sbb    %r9,%r8
    161d:	4c 89 02             	mov    %r8,(%rdx)
    1620:	4c 8b 07             	mov    (%rdi),%r8
    1623:	0f 92 c1             	setb   %cl
    1626:	48 83 c0 01          	add    $0x1,%rax
    162a:	48 83 c2 08          	add    $0x8,%rdx
    162e:	49 39 c0             	cmp    %rax,%r8
    1631:	76 2d                	jbe    1660 <bigint_sub_inplace+0x70>
    1633:	48 39 06             	cmp    %rax,(%rsi)
    1636:	76 d8                	jbe    1610 <bigint_sub_inplace+0x20>
    1638:	4c 8b 02             	mov    (%rdx),%r8
    163b:	80 c1 ff             	add    $0xff,%cl
    163e:	4c 1b 44 c6 20       	sbb    0x20(%rsi,%rax,8),%r8
    1643:	4c 89 02             	mov    %r8,(%rdx)
    1646:	4c 8b 07             	mov    (%rdi),%r8
    1649:	0f 92 c1             	setb   %cl
    164c:	48 83 c0 01          	add    $0x1,%rax
    1650:	48 83 c2 08          	add    $0x8,%rdx
    1654:	49 39 c0             	cmp    %rax,%r8
    1657:	77 da                	ja     1633 <bigint_sub_inplace+0x43>
    1659:	0f 1f 80 00 00 00 00 	nopl   0x0(%rax)
    1660:	49 83 f8 01          	cmp    $0x1,%r8
    1664:	76 2e                	jbe    1694 <bigint_sub_inplace+0xa4>
    1666:	4a 83 7c c7 18 00    	cmpq   $0x0,0x18(%rdi,%r8,8)
    166c:	49 8d 40 ff          	lea    -0x1(%r8),%rax
    1670:	74 15                	je     1687 <bigint_sub_inplace+0x97>
    1672:	eb 30                	jmp    16a4 <bigint_sub_inplace+0xb4>
    1674:	0f 1f 40 00          	nopl   0x0(%rax)
    1678:	48 8d 50 ff          	lea    -0x1(%rax),%rdx
    167c:	48 83 7c d7 20 00    	cmpq   $0x0,0x20(%rdi,%rdx,8)
    1682:	75 1c                	jne    16a0 <bigint_sub_inplace+0xb0>
    1684:	48 89 d0             	mov    %rdx,%rax
    1687:	48 83 f8 01          	cmp    $0x1,%rax
    168b:	75 eb                	jne    1678 <bigint_sub_inplace+0x88>
    168d:	48 c7 07 01 00 00 00 	movq   $0x1,(%rdi)
    1694:	f3 c3                	repz retq 
    1696:	66 2e 0f 1f 84 00 00 	nopw   %cs:0x0(%rax,%rax,1)
    169d:	00 00 00 
    16a0:	48 89 07             	mov    %rax,(%rdi)
    16a3:	c3                   	retq   
    16a4:	f3 c3                	repz retq 
    16a6:	66 2e 0f 1f 84 00 00 	nopw   %cs:0x0(%rax,%rax,1)
    16ad:	00 00 00 

00000000000016b0 <bigint_add_inplace_mod>:
    16b0:	41 54                	push   %r12
    16b2:	55                   	push   %rbp
    16b3:	49 89 f4             	mov    %rsi,%r12
    16b6:	53                   	push   %rbx
    16b7:	4c 8b 07             	mov    (%rdi),%r8
    16ba:	48 89 fb             	mov    %rdi,%rbx
    16bd:	48 8b 06             	mov    (%rsi),%rax
    16c0:	48 89 d5             	mov    %rdx,%rbp
    16c3:	49 39 c0             	cmp    %rax,%r8
    16c6:	0f 82 54 01 00 00    	jb     1820 <bigint_add_inplace_mod+0x170>
    16cc:	31 f6                	xor    %esi,%esi
    16ce:	31 c0                	xor    %eax,%eax
    16d0:	31 ff                	xor    %edi,%edi
    16d2:	4d 85 c0             	test   %r8,%r8
    16d5:	48 8d 4b 20          	lea    0x20(%rbx),%rcx
    16d9:	75 2b                	jne    1706 <bigint_add_inplace_mod+0x56>
    16db:	eb 67                	jmp    1744 <bigint_add_inplace_mod+0x94>
    16dd:	0f 1f 00             	nopl   (%rax)
    16e0:	40 84 f6             	test   %sil,%sil
    16e3:	74 5f                	je     1744 <bigint_add_inplace_mod+0x94>
    16e5:	48 8b 11             	mov    (%rcx),%rdx
    16e8:	40 80 c6 ff          	add    $0xff,%sil
    16ec:	48 11 fa             	adc    %rdi,%rdx
    16ef:	48 89 11             	mov    %rdx,(%rcx)
    16f2:	48 8b 13             	mov    (%rbx),%rdx
    16f5:	40 0f 92 c6          	setb   %sil
    16f9:	48 83 c0 01          	add    $0x1,%rax
    16fd:	48 83 c1 08          	add    $0x8,%rcx
    1701:	48 39 d0             	cmp    %rdx,%rax
    1704:	73 29                	jae    172f <bigint_add_inplace_mod+0x7f>
    1706:	49 39 04 24          	cmp    %rax,(%r12)
    170a:	76 d4                	jbe    16e0 <bigint_add_inplace_mod+0x30>
    170c:	48 8b 11             	mov    (%rcx),%rdx
    170f:	40 80 c6 ff          	add    $0xff,%sil
    1713:	49 13 54 c4 20       	adc    0x20(%r12,%rax,8),%rdx
    1718:	48 89 11             	mov    %rdx,(%rcx)
    171b:	48 8b 13             	mov    (%rbx),%rdx
    171e:	40 0f 92 c6          	setb   %sil
    1722:	48 83 c0 01          	add    $0x1,%rax
    1726:	48 83 c1 08          	add    $0x8,%rcx
    172a:	48 39 d0             	cmp    %rdx,%rax
    172d:	72 d7                	jb     1706 <bigint_add_inplace_mod+0x56>
    172f:	40 84 f6             	test   %sil,%sil
    1732:	74 10                	je     1744 <bigint_add_inplace_mod+0x94>
    1734:	48 83 c2 01          	add    $0x1,%rdx
    1738:	40 0f b6 f6          	movzbl %sil,%esi
    173c:	48 89 13             	mov    %rdx,(%rbx)
    173f:	48 89 74 c3 20       	mov    %rsi,0x20(%rbx,%rax,8)
    1744:	45 31 e4             	xor    %r12d,%r12d
    1747:	66 0f 1f 84 00 00 00 	nopw   0x0(%rax,%rax,1)
    174e:	00 00 
    1750:	48 89 de             	mov    %rbx,%rsi
    1753:	48 89 ef             	mov    %rbp,%rdi
    1756:	e8 00 00 00 00       	callq  175b <bigint_add_inplace_mod+0xab>
    175b:	85 c0                	test   %eax,%eax
    175d:	0f 85 ac 00 00 00    	jne    180f <bigint_add_inplace_mod+0x15f>
    1763:	48 8b 33             	mov    (%rbx),%rsi
    1766:	31 c9                	xor    %ecx,%ecx
    1768:	31 c0                	xor    %eax,%eax
    176a:	48 8d 53 20          	lea    0x20(%rbx),%rdx
    176e:	48 85 f6             	test   %rsi,%rsi
    1771:	75 28                	jne    179b <bigint_add_inplace_mod+0xeb>
    1773:	eb db                	jmp    1750 <bigint_add_inplace_mod+0xa0>
    1775:	0f 1f 00             	nopl   (%rax)
    1778:	84 c9                	test   %cl,%cl
    177a:	74 4c                	je     17c8 <bigint_add_inplace_mod+0x118>
    177c:	48 8b 32             	mov    (%rdx),%rsi
    177f:	80 c1 ff             	add    $0xff,%cl
    1782:	4c 19 e6             	sbb    %r12,%rsi
    1785:	48 89 32             	mov    %rsi,(%rdx)
    1788:	48 8b 33             	mov    (%rbx),%rsi
    178b:	0f 92 c1             	setb   %cl
    178e:	48 83 c0 01          	add    $0x1,%rax
    1792:	48 83 c2 08          	add    $0x8,%rdx
    1796:	48 39 f0             	cmp    %rsi,%rax
    1799:	73 2d                	jae    17c8 <bigint_add_inplace_mod+0x118>
    179b:	48 39 45 00          	cmp    %rax,0x0(%rbp)
    179f:	76 d7                	jbe    1778 <bigint_add_inplace_mod+0xc8>
    17a1:	48 8b 32             	mov    (%rdx),%rsi
    17a4:	80 c1 ff             	add    $0xff,%cl
    17a7:	48 1b 74 c5 20       	sbb    0x20(%rbp,%rax,8),%rsi
    17ac:	48 89 32             	mov    %rsi,(%rdx)
    17af:	48 8b 33             	mov    (%rbx),%rsi
    17b2:	0f 92 c1             	setb   %cl
    17b5:	48 83 c0 01          	add    $0x1,%rax
    17b9:	48 83 c2 08          	add    $0x8,%rdx
    17bd:	48 39 f0             	cmp    %rsi,%rax
    17c0:	72 d9                	jb     179b <bigint_add_inplace_mod+0xeb>
    17c2:	66 0f 1f 44 00 00    	nopw   0x0(%rax,%rax,1)
    17c8:	48 83 fe 01          	cmp    $0x1,%rsi
    17cc:	76 82                	jbe    1750 <bigint_add_inplace_mod+0xa0>
    17ce:	48 83 7c f3 18 00    	cmpq   $0x0,0x18(%rbx,%rsi,8)
    17d4:	48 8d 46 ff          	lea    -0x1(%rsi),%rax
    17d8:	74 15                	je     17ef <bigint_add_inplace_mod+0x13f>
    17da:	e9 71 ff ff ff       	jmpq   1750 <bigint_add_inplace_mod+0xa0>
    17df:	90                   	nop
    17e0:	48 8d 50 ff          	lea    -0x1(%rax),%rdx
    17e4:	48 83 7c d3 20 00    	cmpq   $0x0,0x20(%rbx,%rdx,8)
    17ea:	75 2c                	jne    1818 <bigint_add_inplace_mod+0x168>
    17ec:	48 89 d0             	mov    %rdx,%rax
    17ef:	48 83 f8 01          	cmp    $0x1,%rax
    17f3:	75 eb                	jne    17e0 <bigint_add_inplace_mod+0x130>
    17f5:	48 c7 03 01 00 00 00 	movq   $0x1,(%rbx)
    17fc:	48 89 de             	mov    %rbx,%rsi
    17ff:	48 89 ef             	mov    %rbp,%rdi
    1802:	e8 00 00 00 00       	callq  1807 <bigint_add_inplace_mod+0x157>
    1807:	85 c0                	test   %eax,%eax
    1809:	0f 84 54 ff ff ff    	je     1763 <bigint_add_inplace_mod+0xb3>
    180f:	5b                   	pop    %rbx
    1810:	5d                   	pop    %rbp
    1811:	41 5c                	pop    %r12
    1813:	c3                   	retq   
    1814:	0f 1f 40 00          	nopl   0x0(%rax)
    1818:	48 89 03             	mov    %rax,(%rbx)
    181b:	e9 30 ff ff ff       	jmpq   1750 <bigint_add_inplace_mod+0xa0>
    1820:	48 8d 50 03          	lea    0x3(%rax),%rdx
    1824:	4a 8d 7c c7 20       	lea    0x20(%rdi,%r8,8),%rdi
    1829:	31 f6                	xor    %esi,%esi
    182b:	48 83 e2 fc          	and    $0xfffffffffffffffc,%rdx
    182f:	4c 29 c2             	sub    %r8,%rdx
    1832:	48 c1 e2 03          	shl    $0x3,%rdx
    1836:	e8 00 00 00 00       	callq  183b <bigint_add_inplace_mod+0x18b>
    183b:	4d 8b 04 24          	mov    (%r12),%r8
    183f:	4c 89 03             	mov    %r8,(%rbx)
    1842:	e9 85 fe ff ff       	jmpq   16cc <bigint_add_inplace_mod+0x1c>
    1847:	66 0f 1f 84 00 00 00 	nopw   0x0(%rax,%rax,1)
    184e:	00 00 

0000000000001850 <bigint_sub_inplace_mod>:
    1850:	41 55                	push   %r13
    1852:	41 54                	push   %r12
    1854:	49 89 f5             	mov    %rsi,%r13
    1857:	55                   	push   %rbp
    1858:	53                   	push   %rbx
    1859:	48 89 d5             	mov    %rdx,%rbp
    185c:	48 89 fb             	mov    %rdi,%rbx
    185f:	48 83 ec 08          	sub    $0x8,%rsp
    1863:	e8 00 00 00 00       	callq  1868 <bigint_sub_inplace_mod+0x18>
    1868:	85 c0                	test   %eax,%eax
    186a:	0f 85 38 02 00 00    	jne    1aa8 <bigint_sub_inplace_mod+0x258>
    1870:	4c 8b 25 00 00 00 00 	mov    0x0(%rip),%r12        # 1877 <bigint_sub_inplace_mod+0x27>
    1877:	48 89 ee             	mov    %rbp,%rsi
    187a:	49 8d bc 24 80 34 00 	lea    0x3480(%r12),%rdi
    1881:	00 
    1882:	e8 00 00 00 00       	callq  1887 <bigint_sub_inplace_mod+0x37>
    1887:	49 8b b4 24 80 34 00 	mov    0x3480(%r12),%rsi
    188e:	00 
    188f:	48 85 f6             	test   %rsi,%rsi
    1892:	0f 84 04 03 00 00    	je     1b9c <bigint_sub_inplace_mod+0x34c>
    1898:	49 8d 94 24 a0 34 00 	lea    0x34a0(%r12),%rdx
    189f:	00 
    18a0:	31 c9                	xor    %ecx,%ecx
    18a2:	31 c0                	xor    %eax,%eax
    18a4:	31 ff                	xor    %edi,%edi
    18a6:	eb 30                	jmp    18d8 <bigint_sub_inplace_mod+0x88>
    18a8:	0f 1f 84 00 00 00 00 	nopl   0x0(%rax,%rax,1)
    18af:	00 
    18b0:	84 c9                	test   %cl,%cl
    18b2:	74 3d                	je     18f1 <bigint_sub_inplace_mod+0xa1>
    18b4:	48 8b 32             	mov    (%rdx),%rsi
    18b7:	80 c1 ff             	add    $0xff,%cl
    18ba:	48 19 fe             	sbb    %rdi,%rsi
    18bd:	0f 92 c1             	setb   %cl
    18c0:	48 89 32             	mov    %rsi,(%rdx)
    18c3:	49 8b b4 24 80 34 00 	mov    0x3480(%r12),%rsi
    18ca:	00 
    18cb:	48 83 c0 01          	add    $0x1,%rax
    18cf:	48 83 c2 08          	add    $0x8,%rdx
    18d3:	48 39 f0             	cmp    %rsi,%rax
    18d6:	73 19                	jae    18f1 <bigint_sub_inplace_mod+0xa1>
    18d8:	49 39 45 00          	cmp    %rax,0x0(%r13)
    18dc:	76 d2                	jbe    18b0 <bigint_sub_inplace_mod+0x60>
    18de:	48 8b 32             	mov    (%rdx),%rsi
    18e1:	80 c1 ff             	add    $0xff,%cl
    18e4:	49 1b 74 c5 20       	sbb    0x20(%r13,%rax,8),%rsi
    18e9:	0f 92 c1             	setb   %cl
    18ec:	48 89 32             	mov    %rsi,(%rdx)
    18ef:	eb d2                	jmp    18c3 <bigint_sub_inplace_mod+0x73>
    18f1:	48 83 fe 01          	cmp    $0x1,%rsi
    18f5:	0f 86 a9 02 00 00    	jbe    1ba4 <bigint_sub_inplace_mod+0x354>
    18fb:	49 83 bc f4 98 34 00 	cmpq   $0x0,0x3498(%r12,%rsi,8)
    1902:	00 00 
    1904:	48 8d 46 ff          	lea    -0x1(%rsi),%rax
    1908:	74 1c                	je     1926 <bigint_sub_inplace_mod+0xd6>
    190a:	e9 95 02 00 00       	jmpq   1ba4 <bigint_sub_inplace_mod+0x354>
    190f:	90                   	nop
    1910:	48 8d 50 ff          	lea    -0x1(%rax),%rdx
    1914:	49 83 bc d4 a0 34 00 	cmpq   $0x0,0x34a0(%r12,%rdx,8)
    191b:	00 00 
    191d:	0f 85 2c 02 00 00    	jne    1b4f <bigint_sub_inplace_mod+0x2ff>
    1923:	48 89 d0             	mov    %rdx,%rax
    1926:	48 83 f8 01          	cmp    $0x1,%rax
    192a:	75 e4                	jne    1910 <bigint_sub_inplace_mod+0xc0>
    192c:	49 c7 84 24 80 34 00 	movq   $0x1,0x3480(%r12)
    1933:	00 01 00 00 00 
    1938:	4c 8b 03             	mov    (%rbx),%r8
    193b:	49 39 c0             	cmp    %rax,%r8
    193e:	0f 82 1f 02 00 00    	jb     1b63 <bigint_sub_inplace_mod+0x313>
    1944:	31 f6                	xor    %esi,%esi
    1946:	31 c0                	xor    %eax,%eax
    1948:	31 ff                	xor    %edi,%edi
    194a:	4d 85 c0             	test   %r8,%r8
    194d:	48 8d 4b 20          	lea    0x20(%rbx),%rcx
    1951:	75 2b                	jne    197e <bigint_sub_inplace_mod+0x12e>
    1953:	eb 6e                	jmp    19c3 <bigint_sub_inplace_mod+0x173>
    1955:	0f 1f 00             	nopl   (%rax)
    1958:	40 84 f6             	test   %sil,%sil
    195b:	74 66                	je     19c3 <bigint_sub_inplace_mod+0x173>
    195d:	48 8b 11             	mov    (%rcx),%rdx
    1960:	40 80 c6 ff          	add    $0xff,%sil
    1964:	48 11 fa             	adc    %rdi,%rdx
    1967:	48 89 11             	mov    %rdx,(%rcx)
    196a:	48 8b 13             	mov    (%rbx),%rdx
    196d:	40 0f 92 c6          	setb   %sil
    1971:	48 83 c0 01          	add    $0x1,%rax
    1975:	48 83 c1 08          	add    $0x8,%rcx
    1979:	48 39 d0             	cmp    %rdx,%rax
    197c:	73 30                	jae    19ae <bigint_sub_inplace_mod+0x15e>
    197e:	49 39 84 24 80 34 00 	cmp    %rax,0x3480(%r12)
    1985:	00 
    1986:	76 d0                	jbe    1958 <bigint_sub_inplace_mod+0x108>
    1988:	48 8b 11             	mov    (%rcx),%rdx
    198b:	40 80 c6 ff          	add    $0xff,%sil
    198f:	49 13 94 c4 a0 34 00 	adc    0x34a0(%r12,%rax,8),%rdx
    1996:	00 
    1997:	48 89 11             	mov    %rdx,(%rcx)
    199a:	48 8b 13             	mov    (%rbx),%rdx
    199d:	40 0f 92 c6          	setb   %sil
    19a1:	48 83 c0 01          	add    $0x1,%rax
    19a5:	48 83 c1 08          	add    $0x8,%rcx
    19a9:	48 39 d0             	cmp    %rdx,%rax
    19ac:	72 d0                	jb     197e <bigint_sub_inplace_mod+0x12e>
    19ae:	40 84 f6             	test   %sil,%sil
    19b1:	74 10                	je     19c3 <bigint_sub_inplace_mod+0x173>
    19b3:	48 83 c2 01          	add    $0x1,%rdx
    19b7:	40 0f b6 f6          	movzbl %sil,%esi
    19bb:	48 89 13             	mov    %rdx,(%rbx)
    19be:	48 89 74 c3 20       	mov    %rsi,0x20(%rbx,%rax,8)
    19c3:	45 31 e4             	xor    %r12d,%r12d
    19c6:	66 2e 0f 1f 84 00 00 	nopw   %cs:0x0(%rax,%rax,1)
    19cd:	00 00 00 
    19d0:	48 89 de             	mov    %rbx,%rsi
    19d3:	48 89 ef             	mov    %rbp,%rdi
    19d6:	e8 00 00 00 00       	callq  19db <bigint_sub_inplace_mod+0x18b>
    19db:	85 c0                	test   %eax,%eax
    19dd:	0f 85 ac 00 00 00    	jne    1a8f <bigint_sub_inplace_mod+0x23f>
    19e3:	48 8b 33             	mov    (%rbx),%rsi
    19e6:	31 c9                	xor    %ecx,%ecx
    19e8:	31 c0                	xor    %eax,%eax
    19ea:	48 8d 53 20          	lea    0x20(%rbx),%rdx
    19ee:	48 85 f6             	test   %rsi,%rsi
    19f1:	75 28                	jne    1a1b <bigint_sub_inplace_mod+0x1cb>
    19f3:	eb db                	jmp    19d0 <bigint_sub_inplace_mod+0x180>
    19f5:	0f 1f 00             	nopl   (%rax)
    19f8:	84 c9                	test   %cl,%cl
    19fa:	74 4c                	je     1a48 <bigint_sub_inplace_mod+0x1f8>
    19fc:	48 8b 32             	mov    (%rdx),%rsi
    19ff:	80 c1 ff             	add    $0xff,%cl
    1a02:	4c 19 e6             	sbb    %r12,%rsi
    1a05:	48 89 32             	mov    %rsi,(%rdx)
    1a08:	48 8b 33             	mov    (%rbx),%rsi
    1a0b:	0f 92 c1             	setb   %cl
    1a0e:	48 83 c0 01          	add    $0x1,%rax
    1a12:	48 83 c2 08          	add    $0x8,%rdx
    1a16:	48 39 f0             	cmp    %rsi,%rax
    1a19:	73 2d                	jae    1a48 <bigint_sub_inplace_mod+0x1f8>
    1a1b:	48 39 45 00          	cmp    %rax,0x0(%rbp)
    1a1f:	76 d7                	jbe    19f8 <bigint_sub_inplace_mod+0x1a8>
    1a21:	48 8b 32             	mov    (%rdx),%rsi
    1a24:	80 c1 ff             	add    $0xff,%cl
    1a27:	48 1b 74 c5 20       	sbb    0x20(%rbp,%rax,8),%rsi
    1a2c:	48 89 32             	mov    %rsi,(%rdx)
    1a2f:	48 8b 33             	mov    (%rbx),%rsi
    1a32:	0f 92 c1             	setb   %cl
    1a35:	48 83 c0 01          	add    $0x1,%rax
    1a39:	48 83 c2 08          	add    $0x8,%rdx
    1a3d:	48 39 f0             	cmp    %rsi,%rax
    1a40:	72 d9                	jb     1a1b <bigint_sub_inplace_mod+0x1cb>
    1a42:	66 0f 1f 44 00 00    	nopw   0x0(%rax,%rax,1)
    1a48:	48 83 fe 01          	cmp    $0x1,%rsi
    1a4c:	76 82                	jbe    19d0 <bigint_sub_inplace_mod+0x180>
    1a4e:	48 83 7c f3 18 00    	cmpq   $0x0,0x18(%rbx,%rsi,8)
    1a54:	48 8d 46 ff          	lea    -0x1(%rsi),%rax
    1a58:	74 15                	je     1a6f <bigint_sub_inplace_mod+0x21f>
    1a5a:	e9 71 ff ff ff       	jmpq   19d0 <bigint_sub_inplace_mod+0x180>
    1a5f:	90                   	nop
    1a60:	48 8d 50 ff          	lea    -0x1(%rax),%rdx
    1a64:	48 83 7c d3 20 00    	cmpq   $0x0,0x20(%rbx,%rdx,8)
    1a6a:	75 34                	jne    1aa0 <bigint_sub_inplace_mod+0x250>
    1a6c:	48 89 d0             	mov    %rdx,%rax
    1a6f:	48 83 f8 01          	cmp    $0x1,%rax
    1a73:	75 eb                	jne    1a60 <bigint_sub_inplace_mod+0x210>
    1a75:	48 c7 03 01 00 00 00 	movq   $0x1,(%rbx)
    1a7c:	48 89 de             	mov    %rbx,%rsi
    1a7f:	48 89 ef             	mov    %rbp,%rdi
    1a82:	e8 00 00 00 00       	callq  1a87 <bigint_sub_inplace_mod+0x237>
    1a87:	85 c0                	test   %eax,%eax
    1a89:	0f 84 54 ff ff ff    	je     19e3 <bigint_sub_inplace_mod+0x193>
    1a8f:	48 83 c4 08          	add    $0x8,%rsp
    1a93:	5b                   	pop    %rbx
    1a94:	5d                   	pop    %rbp
    1a95:	41 5c                	pop    %r12
    1a97:	41 5d                	pop    %r13
    1a99:	c3                   	retq   
    1a9a:	66 0f 1f 44 00 00    	nopw   0x0(%rax,%rax,1)
    1aa0:	48 89 03             	mov    %rax,(%rbx)
    1aa3:	e9 28 ff ff ff       	jmpq   19d0 <bigint_sub_inplace_mod+0x180>
    1aa8:	48 8b 33             	mov    (%rbx),%rsi
    1aab:	48 85 f6             	test   %rsi,%rsi
    1aae:	74 df                	je     1a8f <bigint_sub_inplace_mod+0x23f>
    1ab0:	48 8d 53 20          	lea    0x20(%rbx),%rdx
    1ab4:	31 c9                	xor    %ecx,%ecx
    1ab6:	31 c0                	xor    %eax,%eax
    1ab8:	31 ff                	xor    %edi,%edi
    1aba:	eb 27                	jmp    1ae3 <bigint_sub_inplace_mod+0x293>
    1abc:	0f 1f 40 00          	nopl   0x0(%rax)
    1ac0:	84 c9                	test   %cl,%cl
    1ac2:	74 46                	je     1b0a <bigint_sub_inplace_mod+0x2ba>
    1ac4:	48 8b 32             	mov    (%rdx),%rsi
    1ac7:	80 c1 ff             	add    $0xff,%cl
    1aca:	48 19 fe             	sbb    %rdi,%rsi
    1acd:	48 89 32             	mov    %rsi,(%rdx)
    1ad0:	48 8b 33             	mov    (%rbx),%rsi
    1ad3:	0f 92 c1             	setb   %cl
    1ad6:	48 83 c0 01          	add    $0x1,%rax
    1ada:	48 83 c2 08          	add    $0x8,%rdx
    1ade:	48 39 f0             	cmp    %rsi,%rax
    1ae1:	73 27                	jae    1b0a <bigint_sub_inplace_mod+0x2ba>
    1ae3:	49 39 45 00          	cmp    %rax,0x0(%r13)
    1ae7:	76 d7                	jbe    1ac0 <bigint_sub_inplace_mod+0x270>
    1ae9:	48 8b 32             	mov    (%rdx),%rsi
    1aec:	80 c1 ff             	add    $0xff,%cl
    1aef:	49 1b 74 c5 20       	sbb    0x20(%r13,%rax,8),%rsi
    1af4:	48 89 32             	mov    %rsi,(%rdx)
    1af7:	48 8b 33             	mov    (%rbx),%rsi
    1afa:	0f 92 c1             	setb   %cl
    1afd:	48 83 c0 01          	add    $0x1,%rax
    1b01:	48 83 c2 08          	add    $0x8,%rdx
    1b05:	48 39 f0             	cmp    %rsi,%rax
    1b08:	72 d9                	jb     1ae3 <bigint_sub_inplace_mod+0x293>
    1b0a:	48 83 fe 01          	cmp    $0x1,%rsi
    1b0e:	0f 86 7b ff ff ff    	jbe    1a8f <bigint_sub_inplace_mod+0x23f>
    1b14:	48 83 7c f3 18 00    	cmpq   $0x0,0x18(%rbx,%rsi,8)
    1b1a:	48 8d 46 ff          	lea    -0x1(%rsi),%rax
    1b1e:	74 17                	je     1b37 <bigint_sub_inplace_mod+0x2e7>
    1b20:	e9 6a ff ff ff       	jmpq   1a8f <bigint_sub_inplace_mod+0x23f>
    1b25:	0f 1f 00             	nopl   (%rax)
    1b28:	48 8d 50 ff          	lea    -0x1(%rax),%rdx
    1b2c:	48 83 7c d3 20 00    	cmpq   $0x0,0x20(%rbx,%rdx,8)
    1b32:	75 5a                	jne    1b8e <bigint_sub_inplace_mod+0x33e>
    1b34:	48 89 d0             	mov    %rdx,%rax
    1b37:	48 83 f8 01          	cmp    $0x1,%rax
    1b3b:	75 eb                	jne    1b28 <bigint_sub_inplace_mod+0x2d8>
    1b3d:	48 c7 03 01 00 00 00 	movq   $0x1,(%rbx)
    1b44:	48 83 c4 08          	add    $0x8,%rsp
    1b48:	5b                   	pop    %rbx
    1b49:	5d                   	pop    %rbp
    1b4a:	41 5c                	pop    %r12
    1b4c:	41 5d                	pop    %r13
    1b4e:	c3                   	retq   
    1b4f:	49 89 84 24 80 34 00 	mov    %rax,0x3480(%r12)
    1b56:	00 
    1b57:	4c 8b 03             	mov    (%rbx),%r8
    1b5a:	49 39 c0             	cmp    %rax,%r8
    1b5d:	0f 83 e1 fd ff ff    	jae    1944 <bigint_sub_inplace_mod+0xf4>
    1b63:	48 8d 50 03          	lea    0x3(%rax),%rdx
    1b67:	4a 8d 7c c3 20       	lea    0x20(%rbx,%r8,8),%rdi
    1b6c:	31 f6                	xor    %esi,%esi
    1b6e:	48 83 e2 fc          	and    $0xfffffffffffffffc,%rdx
    1b72:	4c 29 c2             	sub    %r8,%rdx
    1b75:	48 c1 e2 03          	shl    $0x3,%rdx
    1b79:	e8 00 00 00 00       	callq  1b7e <bigint_sub_inplace_mod+0x32e>
    1b7e:	4d 8b 84 24 80 34 00 	mov    0x3480(%r12),%r8
    1b85:	00 
    1b86:	4c 89 03             	mov    %r8,(%rbx)
    1b89:	e9 b6 fd ff ff       	jmpq   1944 <bigint_sub_inplace_mod+0xf4>
    1b8e:	48 89 03             	mov    %rax,(%rbx)
    1b91:	48 83 c4 08          	add    $0x8,%rsp
    1b95:	5b                   	pop    %rbx
    1b96:	5d                   	pop    %rbp
    1b97:	41 5c                	pop    %r12
    1b99:	41 5d                	pop    %r13
    1b9b:	c3                   	retq   
    1b9c:	4c 8b 03             	mov    (%rbx),%r8
    1b9f:	e9 a0 fd ff ff       	jmpq   1944 <bigint_sub_inplace_mod+0xf4>
    1ba4:	48 89 f0             	mov    %rsi,%rax
    1ba7:	e9 8c fd ff ff       	jmpq   1938 <bigint_sub_inplace_mod+0xe8>
    1bac:	0f 1f 40 00          	nopl   0x0(%rax)

0000000000001bb0 <bigint_divide>:
    1bb0:	41 57                	push   %r15
    1bb2:	41 56                	push   %r14
    1bb4:	49 89 d6             	mov    %rdx,%r14
    1bb7:	41 55                	push   %r13
    1bb9:	41 54                	push   %r12
    1bbb:	49 89 cd             	mov    %rcx,%r13
    1bbe:	55                   	push   %rbp
    1bbf:	53                   	push   %rbx
    1bc0:	48 89 f3             	mov    %rsi,%rbx
    1bc3:	48 83 ec 38          	sub    $0x38,%rsp
    1bc7:	48 8b 35 00 00 00 00 	mov    0x0(%rip),%rsi        # 1bce <bigint_divide+0x1e>
    1bce:	48 89 7c 24 28       	mov    %rdi,0x28(%rsp)
    1bd3:	48 89 df             	mov    %rbx,%rdi
    1bd6:	e8 00 00 00 00       	callq  1bdb <bigint_divide+0x2b>
    1bdb:	85 c0                	test   %eax,%eax
    1bdd:	48 8b 35 00 00 00 00 	mov    0x0(%rip),%rsi        # 1be4 <bigint_divide+0x34>
    1be4:	0f 85 a9 07 00 00    	jne    2393 <bigint_divide+0x7e3>
    1bea:	4c 8b 25 00 00 00 00 	mov    0x0(%rip),%r12        # 1bf1 <bigint_divide+0x41>
    1bf1:	4c 89 f6             	mov    %r14,%rsi
    1bf4:	49 8d 84 24 a0 0a 00 	lea    0xaa0(%r12),%rax
    1bfb:	00 
    1bfc:	49 8d ac 24 00 0a 00 	lea    0xa00(%r12),%rbp
    1c03:	00 
    1c04:	49 89 c7             	mov    %rax,%r15
    1c07:	48 89 ef             	mov    %rbp,%rdi
    1c0a:	48 89 44 24 08       	mov    %rax,0x8(%rsp)
    1c0f:	e8 00 00 00 00       	callq  1c14 <bigint_divide+0x64>
    1c14:	4c 89 ee             	mov    %r13,%rsi
    1c17:	4c 89 ff             	mov    %r15,%rdi
    1c1a:	e8 00 00 00 00       	callq  1c1f <bigint_divide+0x6f>
    1c1f:	4c 8b 3d 00 00 00 00 	mov    0x0(%rip),%r15        # 1c26 <bigint_divide+0x76>
    1c26:	48 89 de             	mov    %rbx,%rsi
    1c29:	31 db                	xor    %ebx,%ebx
    1c2b:	49 8d 87 40 0b 00 00 	lea    0xb40(%r15),%rax
    1c32:	48 89 c7             	mov    %rax,%rdi
    1c35:	48 89 44 24 10       	mov    %rax,0x10(%rsp)
    1c3a:	e8 00 00 00 00       	callq  1c3f <bigint_divide+0x8f>
    1c3f:	31 f6                	xor    %esi,%esi
    1c41:	bf 13 00 00 00       	mov    $0x13,%edi
    1c46:	e8 00 00 00 00       	callq  1c4b <bigint_divide+0x9b>
    1c4b:	49 89 c6             	mov    %rax,%r14
    1c4e:	49 8d 87 60 0b 00 00 	lea    0xb60(%r15),%rax
    1c55:	48 89 44 24 18       	mov    %rax,0x18(%rsp)
    1c5a:	49 8d 46 20          	lea    0x20(%r14),%rax
    1c5e:	48 89 44 24 20       	mov    %rax,0x20(%rsp)
    1c63:	4c 89 e8             	mov    %r13,%rax
    1c66:	4d 89 fd             	mov    %r15,%r13
    1c69:	4d 89 f7             	mov    %r14,%r15
    1c6c:	4d 89 e6             	mov    %r12,%r14
    1c6f:	49 89 c4             	mov    %rax,%r12
    1c72:	48 8b 35 00 00 00 00 	mov    0x0(%rip),%rsi        # 1c79 <bigint_divide+0xc9>
    1c79:	48 89 ef             	mov    %rbp,%rdi
    1c7c:	e8 00 00 00 00       	callq  1c81 <bigint_divide+0xd1>
    1c81:	85 c0                	test   %eax,%eax
    1c83:	0f 85 ef 06 00 00    	jne    2378 <bigint_divide+0x7c8>
    1c89:	48 8b 35 00 00 00 00 	mov    0x0(%rip),%rsi        # 1c90 <bigint_divide+0xe0>
    1c90:	48 8b 7c 24 08       	mov    0x8(%rsp),%rdi
    1c95:	e8 00 00 00 00       	callq  1c9a <bigint_divide+0xea>
    1c9a:	85 c0                	test   %eax,%eax
    1c9c:	0f 85 d6 06 00 00    	jne    2378 <bigint_divide+0x7c8>
    1ca2:	48 89 ef             	mov    %rbp,%rdi
    1ca5:	e8 00 00 00 00       	callq  1caa <bigint_divide+0xfa>
    1caa:	85 c0                	test   %eax,%eax
    1cac:	0f 84 ee 00 00 00    	je     1da0 <bigint_divide+0x1f0>
    1cb2:	49 8b be 00 0a 00 00 	mov    0xa00(%r14),%rdi
    1cb9:	31 c0                	xor    %eax,%eax
    1cbb:	48 85 ff             	test   %rdi,%rdi
    1cbe:	48 89 f9             	mov    %rdi,%rcx
    1cc1:	74 52                	je     1d15 <bigint_divide+0x165>
    1cc3:	48 89 c6             	mov    %rax,%rsi
    1cc6:	66 2e 0f 1f 84 00 00 	nopw   %cs:0x0(%rax,%rax,1)
    1ccd:	00 00 00 
    1cd0:	48 83 e9 01          	sub    $0x1,%rcx
    1cd4:	49 8b 94 ce 20 0a 00 	mov    0xa20(%r14,%rcx,8),%rdx
    1cdb:	00 
    1cdc:	48 89 d0             	mov    %rdx,%rax
    1cdf:	48 d1 e8             	shr    %rax
    1ce2:	48 01 f0             	add    %rsi,%rax
    1ce5:	48 89 d6             	mov    %rdx,%rsi
    1ce8:	48 c1 e6 3f          	shl    $0x3f,%rsi
    1cec:	48 85 c9             	test   %rcx,%rcx
    1cef:	49 89 84 ce 20 0a 00 	mov    %rax,0xa20(%r14,%rcx,8)
    1cf6:	00 
    1cf7:	75 d7                	jne    1cd0 <bigint_divide+0x120>
    1cf9:	49 83 bc fe 18 0a 00 	cmpq   $0x0,0xa18(%r14,%rdi,8)
    1d00:	00 00 
    1d02:	48 8d 47 ff          	lea    -0x1(%rdi),%rax
    1d06:	75 0d                	jne    1d15 <bigint_divide+0x165>
    1d08:	48 83 ff 01          	cmp    $0x1,%rdi
    1d0c:	76 07                	jbe    1d15 <bigint_divide+0x165>
    1d0e:	49 89 86 00 0a 00 00 	mov    %rax,0xa00(%r14)
    1d15:	48 8b 7c 24 10       	mov    0x10(%rsp),%rdi
    1d1a:	e8 00 00 00 00       	callq  1d1f <bigint_divide+0x16f>
    1d1f:	85 c0                	test   %eax,%eax
    1d21:	49 8b bd 40 0b 00 00 	mov    0xb40(%r13),%rdi
    1d28:	0f 84 8a 02 00 00    	je     1fb8 <bigint_divide+0x408>
    1d2e:	31 c0                	xor    %eax,%eax
    1d30:	48 85 ff             	test   %rdi,%rdi
    1d33:	48 89 f9             	mov    %rdi,%rcx
    1d36:	0f 84 66 ff ff ff    	je     1ca2 <bigint_divide+0xf2>
    1d3c:	48 89 c6             	mov    %rax,%rsi
    1d3f:	90                   	nop
    1d40:	48 83 e9 01          	sub    $0x1,%rcx
    1d44:	49 8b 94 cd 60 0b 00 	mov    0xb60(%r13,%rcx,8),%rdx
    1d4b:	00 
    1d4c:	48 89 d0             	mov    %rdx,%rax
    1d4f:	48 d1 e8             	shr    %rax
    1d52:	48 01 f0             	add    %rsi,%rax
    1d55:	48 89 d6             	mov    %rdx,%rsi
    1d58:	48 c1 e6 3f          	shl    $0x3f,%rsi
    1d5c:	48 85 c9             	test   %rcx,%rcx
    1d5f:	49 89 84 cd 60 0b 00 	mov    %rax,0xb60(%r13,%rcx,8)
    1d66:	00 
    1d67:	75 d7                	jne    1d40 <bigint_divide+0x190>
    1d69:	49 83 bc fd 58 0b 00 	cmpq   $0x0,0xb58(%r13,%rdi,8)
    1d70:	00 00 
    1d72:	48 8d 47 ff          	lea    -0x1(%rdi),%rax
    1d76:	0f 85 26 ff ff ff    	jne    1ca2 <bigint_divide+0xf2>
    1d7c:	48 83 ff 01          	cmp    $0x1,%rdi
    1d80:	0f 86 1c ff ff ff    	jbe    1ca2 <bigint_divide+0xf2>
    1d86:	49 89 85 40 0b 00 00 	mov    %rax,0xb40(%r13)
    1d8d:	48 89 ef             	mov    %rbp,%rdi
    1d90:	e8 00 00 00 00       	callq  1d95 <bigint_divide+0x1e5>
    1d95:	85 c0                	test   %eax,%eax
    1d97:	0f 85 15 ff ff ff    	jne    1cb2 <bigint_divide+0x102>
    1d9d:	0f 1f 00             	nopl   (%rax)
    1da0:	48 8b 7c 24 08       	mov    0x8(%rsp),%rdi
    1da5:	e8 00 00 00 00       	callq  1daa <bigint_divide+0x1fa>
    1daa:	85 c0                	test   %eax,%eax
    1dac:	0f 84 e0 00 00 00    	je     1e92 <bigint_divide+0x2e2>
    1db2:	49 8b be a0 0a 00 00 	mov    0xaa0(%r14),%rdi
    1db9:	31 c0                	xor    %eax,%eax
    1dbb:	48 85 ff             	test   %rdi,%rdi
    1dbe:	48 89 f9             	mov    %rdi,%rcx
    1dc1:	74 52                	je     1e15 <bigint_divide+0x265>
    1dc3:	48 89 c6             	mov    %rax,%rsi
    1dc6:	66 2e 0f 1f 84 00 00 	nopw   %cs:0x0(%rax,%rax,1)
    1dcd:	00 00 00 
    1dd0:	48 83 e9 01          	sub    $0x1,%rcx
    1dd4:	49 8b 94 ce c0 0a 00 	mov    0xac0(%r14,%rcx,8),%rdx
    1ddb:	00 
    1ddc:	48 89 d0             	mov    %rdx,%rax
    1ddf:	48 c1 e2 3f          	shl    $0x3f,%rdx
    1de3:	48 d1 e8             	shr    %rax
    1de6:	48 01 f0             	add    %rsi,%rax
    1de9:	48 85 c9             	test   %rcx,%rcx
    1dec:	48 89 d6             	mov    %rdx,%rsi
    1def:	49 89 84 ce c0 0a 00 	mov    %rax,0xac0(%r14,%rcx,8)
    1df6:	00 
    1df7:	75 d7                	jne    1dd0 <bigint_divide+0x220>
    1df9:	49 83 bc fe b8 0a 00 	cmpq   $0x0,0xab8(%r14,%rdi,8)
    1e00:	00 00 
    1e02:	48 8d 47 ff          	lea    -0x1(%rdi),%rax
    1e06:	75 0d                	jne    1e15 <bigint_divide+0x265>
    1e08:	48 83 ff 01          	cmp    $0x1,%rdi
    1e0c:	76 07                	jbe    1e15 <bigint_divide+0x265>
    1e0e:	49 89 86 a0 0a 00 00 	mov    %rax,0xaa0(%r14)
    1e15:	4c 89 ff             	mov    %r15,%rdi
    1e18:	e8 00 00 00 00       	callq  1e1d <bigint_divide+0x26d>
    1e1d:	85 c0                	test   %eax,%eax
    1e1f:	49 8b 3f             	mov    (%r15),%rdi
    1e22:	0f 84 f8 00 00 00    	je     1f20 <bigint_divide+0x370>
    1e28:	31 c0                	xor    %eax,%eax
    1e2a:	48 85 ff             	test   %rdi,%rdi
    1e2d:	48 89 f9             	mov    %rdi,%rcx
    1e30:	0f 84 6a ff ff ff    	je     1da0 <bigint_divide+0x1f0>
    1e36:	48 89 c6             	mov    %rax,%rsi
    1e39:	0f 1f 80 00 00 00 00 	nopl   0x0(%rax)
    1e40:	48 83 e9 01          	sub    $0x1,%rcx
    1e44:	49 8b 54 cf 20       	mov    0x20(%r15,%rcx,8),%rdx
    1e49:	48 89 d0             	mov    %rdx,%rax
    1e4c:	48 d1 e8             	shr    %rax
    1e4f:	48 01 f0             	add    %rsi,%rax
    1e52:	48 89 d6             	mov    %rdx,%rsi
    1e55:	48 c1 e6 3f          	shl    $0x3f,%rsi
    1e59:	48 85 c9             	test   %rcx,%rcx
    1e5c:	49 89 44 cf 20       	mov    %rax,0x20(%r15,%rcx,8)
    1e61:	75 dd                	jne    1e40 <bigint_divide+0x290>
    1e63:	49 83 7c ff 18 00    	cmpq   $0x0,0x18(%r15,%rdi,8)
    1e69:	48 8d 47 ff          	lea    -0x1(%rdi),%rax
    1e6d:	0f 85 2d ff ff ff    	jne    1da0 <bigint_divide+0x1f0>
    1e73:	48 83 ff 01          	cmp    $0x1,%rdi
    1e77:	0f 86 23 ff ff ff    	jbe    1da0 <bigint_divide+0x1f0>
    1e7d:	48 8b 7c 24 08       	mov    0x8(%rsp),%rdi
    1e82:	49 89 07             	mov    %rax,(%r15)
    1e85:	e8 00 00 00 00       	callq  1e8a <bigint_divide+0x2da>
    1e8a:	85 c0                	test   %eax,%eax
    1e8c:	0f 85 20 ff ff ff    	jne    1db2 <bigint_divide+0x202>
    1e92:	48 8b 7c 24 08       	mov    0x8(%rsp),%rdi
    1e97:	48 89 ee             	mov    %rbp,%rsi
    1e9a:	e8 00 00 00 00       	callq  1e9f <bigint_divide+0x2ef>
    1e9f:	85 c0                	test   %eax,%eax
    1ea1:	0f 85 8d 02 00 00    	jne    2134 <bigint_divide+0x584>
    1ea7:	49 8b be 00 0a 00 00 	mov    0xa00(%r14),%rdi
    1eae:	31 f6                	xor    %esi,%esi
    1eb0:	31 d2                	xor    %edx,%edx
    1eb2:	49 8d 86 20 0a 00 00 	lea    0xa20(%r14),%rax
    1eb9:	48 85 ff             	test   %rdi,%rdi
    1ebc:	75 3c                	jne    1efa <bigint_divide+0x34a>
    1ebe:	e9 ec 01 00 00       	jmpq   20af <bigint_divide+0x4ff>
    1ec3:	0f 1f 44 00 00       	nopl   0x0(%rax,%rax,1)
    1ec8:	40 84 f6             	test   %sil,%sil
    1ecb:	0f 84 f3 03 00 00    	je     22c4 <bigint_divide+0x714>
    1ed1:	48 8b 08             	mov    (%rax),%rcx
    1ed4:	40 80 c6 ff          	add    $0xff,%sil
    1ed8:	48 19 d9             	sbb    %rbx,%rcx
    1edb:	40 0f 92 c6          	setb   %sil
    1edf:	48 89 08             	mov    %rcx,(%rax)
    1ee2:	49 8b be 00 0a 00 00 	mov    0xa00(%r14),%rdi
    1ee9:	48 83 c2 01          	add    $0x1,%rdx
    1eed:	48 83 c0 08          	add    $0x8,%rax
    1ef1:	48 39 fa             	cmp    %rdi,%rdx
    1ef4:	0f 83 ca 03 00 00    	jae    22c4 <bigint_divide+0x714>
    1efa:	49 39 96 a0 0a 00 00 	cmp    %rdx,0xaa0(%r14)
    1f01:	76 c5                	jbe    1ec8 <bigint_divide+0x318>
    1f03:	48 8b 08             	mov    (%rax),%rcx
    1f06:	40 80 c6 ff          	add    $0xff,%sil
    1f0a:	48 1b 88 a0 00 00 00 	sbb    0xa0(%rax),%rcx
    1f11:	40 0f 92 c6          	setb   %sil
    1f15:	48 89 08             	mov    %rcx,(%rax)
    1f18:	eb c8                	jmp    1ee2 <bigint_divide+0x332>
    1f1a:	66 0f 1f 44 00 00    	nopw   0x0(%rax,%rax,1)
    1f20:	49 8b 04 24          	mov    (%r12),%rax
    1f24:	48 39 c7             	cmp    %rax,%rdi
    1f27:	0f 82 21 01 00 00    	jb     204e <bigint_divide+0x49e>
    1f2d:	31 f6                	xor    %esi,%esi
    1f2f:	31 c0                	xor    %eax,%eax
    1f31:	48 85 ff             	test   %rdi,%rdi
    1f34:	49 8d 4f 20          	lea    0x20(%r15),%rcx
    1f38:	75 30                	jne    1f6a <bigint_divide+0x3ba>
    1f3a:	e9 61 fe ff ff       	jmpq   1da0 <bigint_divide+0x1f0>
    1f3f:	90                   	nop
    1f40:	40 84 f6             	test   %sil,%sil
    1f43:	0f 84 df fe ff ff    	je     1e28 <bigint_divide+0x278>
    1f49:	48 8b 11             	mov    (%rcx),%rdx
    1f4c:	40 80 c6 ff          	add    $0xff,%sil
    1f50:	48 11 da             	adc    %rbx,%rdx
    1f53:	48 89 11             	mov    %rdx,(%rcx)
    1f56:	49 8b 3f             	mov    (%r15),%rdi
    1f59:	40 0f 92 c6          	setb   %sil
    1f5d:	48 83 c0 01          	add    $0x1,%rax
    1f61:	48 83 c1 08          	add    $0x8,%rcx
    1f65:	48 39 f8             	cmp    %rdi,%rax
    1f68:	73 29                	jae    1f93 <bigint_divide+0x3e3>
    1f6a:	49 39 04 24          	cmp    %rax,(%r12)
    1f6e:	76 d0                	jbe    1f40 <bigint_divide+0x390>
    1f70:	48 8b 11             	mov    (%rcx),%rdx
    1f73:	40 80 c6 ff          	add    $0xff,%sil
    1f77:	49 13 54 c4 20       	adc    0x20(%r12,%rax,8),%rdx
    1f7c:	48 89 11             	mov    %rdx,(%rcx)
    1f7f:	49 8b 3f             	mov    (%r15),%rdi
    1f82:	40 0f 92 c6          	setb   %sil
    1f86:	48 83 c0 01          	add    $0x1,%rax
    1f8a:	48 83 c1 08          	add    $0x8,%rcx
    1f8e:	48 39 f8             	cmp    %rdi,%rax
    1f91:	72 d7                	jb     1f6a <bigint_divide+0x3ba>
    1f93:	40 84 f6             	test   %sil,%sil
    1f96:	0f 84 8c fe ff ff    	je     1e28 <bigint_divide+0x278>
    1f9c:	48 83 c7 01          	add    $0x1,%rdi
    1fa0:	40 0f b6 f6          	movzbl %sil,%esi
    1fa4:	49 89 3f             	mov    %rdi,(%r15)
    1fa7:	49 89 74 c7 20       	mov    %rsi,0x20(%r15,%rax,8)
    1fac:	e9 77 fe ff ff       	jmpq   1e28 <bigint_divide+0x278>
    1fb1:	0f 1f 80 00 00 00 00 	nopl   0x0(%rax)
    1fb8:	49 8b 04 24          	mov    (%r12),%rax
    1fbc:	48 39 c7             	cmp    %rax,%rdi
    1fbf:	0f 82 b4 00 00 00    	jb     2079 <bigint_divide+0x4c9>
    1fc5:	31 f6                	xor    %esi,%esi
    1fc7:	31 c0                	xor    %eax,%eax
    1fc9:	48 85 ff             	test   %rdi,%rdi
    1fcc:	49 8d 8d 60 0b 00 00 	lea    0xb60(%r13),%rcx
    1fd3:	75 39                	jne    200e <bigint_divide+0x45e>
    1fd5:	e9 c8 fc ff ff       	jmpq   1ca2 <bigint_divide+0xf2>
    1fda:	66 0f 1f 44 00 00    	nopw   0x0(%rax,%rax,1)
    1fe0:	40 84 f6             	test   %sil,%sil
    1fe3:	0f 84 45 fd ff ff    	je     1d2e <bigint_divide+0x17e>
    1fe9:	48 8b 11             	mov    (%rcx),%rdx
    1fec:	40 80 c6 ff          	add    $0xff,%sil
    1ff0:	48 11 da             	adc    %rbx,%rdx
    1ff3:	40 0f 92 c6          	setb   %sil
    1ff7:	48 89 11             	mov    %rdx,(%rcx)
    1ffa:	49 8b bd 40 0b 00 00 	mov    0xb40(%r13),%rdi
    2001:	48 83 c0 01          	add    $0x1,%rax
    2005:	48 83 c1 08          	add    $0x8,%rcx
    2009:	48 39 f8             	cmp    %rdi,%rax
    200c:	73 1b                	jae    2029 <bigint_divide+0x479>
    200e:	49 39 04 24          	cmp    %rax,(%r12)
    2012:	76 cc                	jbe    1fe0 <bigint_divide+0x430>
    2014:	40 80 c6 ff          	add    $0xff,%sil
    2018:	48 8b 11             	mov    (%rcx),%rdx
    201b:	49 13 54 c4 20       	adc    0x20(%r12,%rax,8),%rdx
    2020:	40 0f 92 c6          	setb   %sil
    2024:	48 89 11             	mov    %rdx,(%rcx)
    2027:	eb d1                	jmp    1ffa <bigint_divide+0x44a>
    2029:	40 84 f6             	test   %sil,%sil
    202c:	0f 84 fc fc ff ff    	je     1d2e <bigint_divide+0x17e>
    2032:	48 83 c7 01          	add    $0x1,%rdi
    2036:	40 0f b6 f6          	movzbl %sil,%esi
    203a:	49 89 bd 40 0b 00 00 	mov    %rdi,0xb40(%r13)
    2041:	49 89 b4 c5 60 0b 00 	mov    %rsi,0xb60(%r13,%rax,8)
    2048:	00 
    2049:	e9 e0 fc ff ff       	jmpq   1d2e <bigint_divide+0x17e>
    204e:	48 8d 50 03          	lea    0x3(%rax),%rdx
    2052:	48 8b 44 24 20       	mov    0x20(%rsp),%rax
    2057:	31 f6                	xor    %esi,%esi
    2059:	48 83 e2 fc          	and    $0xfffffffffffffffc,%rdx
    205d:	48 29 fa             	sub    %rdi,%rdx
    2060:	48 8d 3c f8          	lea    (%rax,%rdi,8),%rdi
    2064:	48 c1 e2 03          	shl    $0x3,%rdx
    2068:	e8 00 00 00 00       	callq  206d <bigint_divide+0x4bd>
    206d:	49 8b 3c 24          	mov    (%r12),%rdi
    2071:	49 89 3f             	mov    %rdi,(%r15)
    2074:	e9 b4 fe ff ff       	jmpq   1f2d <bigint_divide+0x37d>
    2079:	48 8d 50 03          	lea    0x3(%rax),%rdx
    207d:	48 8b 44 24 18       	mov    0x18(%rsp),%rax
    2082:	31 f6                	xor    %esi,%esi
    2084:	48 83 e2 fc          	and    $0xfffffffffffffffc,%rdx
    2088:	48 29 fa             	sub    %rdi,%rdx
    208b:	48 8d 3c f8          	lea    (%rax,%rdi,8),%rdi
    208f:	48 c1 e2 03          	shl    $0x3,%rdx
    2093:	e8 00 00 00 00       	callq  2098 <bigint_divide+0x4e8>
    2098:	49 8b 3c 24          	mov    (%r12),%rdi
    209c:	49 89 bd 40 0b 00 00 	mov    %rdi,0xb40(%r13)
    20a3:	e9 1d ff ff ff       	jmpq   1fc5 <bigint_divide+0x415>
    20a8:	49 89 86 00 0a 00 00 	mov    %rax,0xa00(%r14)
    20af:	48 8b 74 24 10       	mov    0x10(%rsp),%rsi
    20b4:	4c 89 ff             	mov    %r15,%rdi
    20b7:	e8 00 00 00 00       	callq  20bc <bigint_divide+0x50c>
    20bc:	85 c0                	test   %eax,%eax
    20be:	0f 85 e7 02 00 00    	jne    23ab <bigint_divide+0x7fb>
    20c4:	49 8b bd 40 0b 00 00 	mov    0xb40(%r13),%rdi
    20cb:	48 85 ff             	test   %rdi,%rdi
    20ce:	0f 84 9e fb ff ff    	je     1c72 <bigint_divide+0xc2>
    20d4:	49 8d 95 60 0b 00 00 	lea    0xb60(%r13),%rdx
    20db:	31 f6                	xor    %esi,%esi
    20dd:	31 c0                	xor    %eax,%eax
    20df:	eb 39                	jmp    211a <bigint_divide+0x56a>
    20e1:	0f 1f 80 00 00 00 00 	nopl   0x0(%rax)
    20e8:	40 84 f6             	test   %sil,%sil
    20eb:	0f 84 84 01 00 00    	je     2275 <bigint_divide+0x6c5>
    20f1:	48 8b 0a             	mov    (%rdx),%rcx
    20f4:	40 80 c6 ff          	add    $0xff,%sil
    20f8:	48 19 d9             	sbb    %rbx,%rcx
    20fb:	40 0f 92 c6          	setb   %sil
    20ff:	48 89 0a             	mov    %rcx,(%rdx)
    2102:	49 8b bd 40 0b 00 00 	mov    0xb40(%r13),%rdi
    2109:	48 83 c0 01          	add    $0x1,%rax
    210d:	48 83 c2 08          	add    $0x8,%rdx
    2111:	48 39 f8             	cmp    %rdi,%rax
    2114:	0f 83 5b 01 00 00    	jae    2275 <bigint_divide+0x6c5>
    211a:	49 39 07             	cmp    %rax,(%r15)
    211d:	76 c9                	jbe    20e8 <bigint_divide+0x538>
    211f:	48 8b 0a             	mov    (%rdx),%rcx
    2122:	40 80 c6 ff          	add    $0xff,%sil
    2126:	49 1b 4c c7 20       	sbb    0x20(%r15,%rax,8),%rcx
    212b:	40 0f 92 c6          	setb   %sil
    212f:	48 89 0a             	mov    %rcx,(%rdx)
    2132:	eb ce                	jmp    2102 <bigint_divide+0x552>
    2134:	49 8b be a0 0a 00 00 	mov    0xaa0(%r14),%rdi
    213b:	31 f6                	xor    %esi,%esi
    213d:	31 d2                	xor    %edx,%edx
    213f:	49 8d 86 c0 0a 00 00 	lea    0xac0(%r14),%rax
    2146:	48 85 ff             	test   %rdi,%rdi
    2149:	75 37                	jne    2182 <bigint_divide+0x5d2>
    214b:	eb 5c                	jmp    21a9 <bigint_divide+0x5f9>
    214d:	0f 1f 00             	nopl   (%rax)
    2150:	40 84 f6             	test   %sil,%sil
    2153:	0f 84 bb 01 00 00    	je     2314 <bigint_divide+0x764>
    2159:	48 8b 08             	mov    (%rax),%rcx
    215c:	40 80 c6 ff          	add    $0xff,%sil
    2160:	48 19 d9             	sbb    %rbx,%rcx
    2163:	40 0f 92 c6          	setb   %sil
    2167:	48 89 08             	mov    %rcx,(%rax)
    216a:	49 8b be a0 0a 00 00 	mov    0xaa0(%r14),%rdi
    2171:	48 83 c2 01          	add    $0x1,%rdx
    2175:	48 83 c0 08          	add    $0x8,%rax
    2179:	48 39 fa             	cmp    %rdi,%rdx
    217c:	0f 83 92 01 00 00    	jae    2314 <bigint_divide+0x764>
    2182:	49 39 96 00 0a 00 00 	cmp    %rdx,0xa00(%r14)
    2189:	76 c5                	jbe    2150 <bigint_divide+0x5a0>
    218b:	48 8b 08             	mov    (%rax),%rcx
    218e:	40 80 c6 ff          	add    $0xff,%sil
    2192:	48 1b 88 60 ff ff ff 	sbb    -0xa0(%rax),%rcx
    2199:	40 0f 92 c6          	setb   %sil
    219d:	48 89 08             	mov    %rcx,(%rax)
    21a0:	eb c8                	jmp    216a <bigint_divide+0x5ba>
    21a2:	49 89 86 a0 0a 00 00 	mov    %rax,0xaa0(%r14)
    21a9:	48 8b 7c 24 10       	mov    0x10(%rsp),%rdi
    21ae:	4c 89 fe             	mov    %r15,%rsi
    21b1:	e8 00 00 00 00       	callq  21b6 <bigint_divide+0x606>
    21b6:	85 c0                	test   %eax,%eax
    21b8:	0f 85 62 02 00 00    	jne    2420 <bigint_divide+0x870>
    21be:	49 8b 3f             	mov    (%r15),%rdi
    21c1:	31 f6                	xor    %esi,%esi
    21c3:	31 c0                	xor    %eax,%eax
    21c5:	48 85 ff             	test   %rdi,%rdi
    21c8:	49 8d 57 20          	lea    0x20(%r15),%rdx
    21cc:	75 30                	jne    21fe <bigint_divide+0x64e>
    21ce:	e9 9f fa ff ff       	jmpq   1c72 <bigint_divide+0xc2>
    21d3:	0f 1f 44 00 00       	nopl   0x0(%rax,%rax,1)
    21d8:	40 84 f6             	test   %sil,%sil
    21db:	74 50                	je     222d <bigint_divide+0x67d>
    21dd:	48 8b 0a             	mov    (%rdx),%rcx
    21e0:	40 80 c6 ff          	add    $0xff,%sil
    21e4:	48 19 d9             	sbb    %rbx,%rcx
    21e7:	48 89 0a             	mov    %rcx,(%rdx)
    21ea:	49 8b 3f             	mov    (%r15),%rdi
    21ed:	40 0f 92 c6          	setb   %sil
    21f1:	48 83 c0 01          	add    $0x1,%rax
    21f5:	48 83 c2 08          	add    $0x8,%rdx
    21f9:	48 39 f8             	cmp    %rdi,%rax
    21fc:	73 2f                	jae    222d <bigint_divide+0x67d>
    21fe:	49 39 85 40 0b 00 00 	cmp    %rax,0xb40(%r13)
    2205:	76 d1                	jbe    21d8 <bigint_divide+0x628>
    2207:	48 8b 0a             	mov    (%rdx),%rcx
    220a:	40 80 c6 ff          	add    $0xff,%sil
    220e:	49 1b 8c c5 60 0b 00 	sbb    0xb60(%r13,%rax,8),%rcx
    2215:	00 
    2216:	48 89 0a             	mov    %rcx,(%rdx)
    2219:	49 8b 3f             	mov    (%r15),%rdi
    221c:	40 0f 92 c6          	setb   %sil
    2220:	48 83 c0 01          	add    $0x1,%rax
    2224:	48 83 c2 08          	add    $0x8,%rdx
    2228:	48 39 f8             	cmp    %rdi,%rax
    222b:	72 d1                	jb     21fe <bigint_divide+0x64e>
    222d:	48 83 ff 01          	cmp    $0x1,%rdi
    2231:	0f 86 3b fa ff ff    	jbe    1c72 <bigint_divide+0xc2>
    2237:	49 83 7c ff 18 00    	cmpq   $0x0,0x18(%r15,%rdi,8)
    223d:	48 8d 47 ff          	lea    -0x1(%rdi),%rax
    2241:	74 20                	je     2263 <bigint_divide+0x6b3>
    2243:	e9 2a fa ff ff       	jmpq   1c72 <bigint_divide+0xc2>
    2248:	0f 1f 84 00 00 00 00 	nopl   0x0(%rax,%rax,1)
    224f:	00 
    2250:	48 8d 50 ff          	lea    -0x1(%rax),%rdx
    2254:	49 83 7c d7 20 00    	cmpq   $0x0,0x20(%r15,%rdx,8)
    225a:	0f 85 10 01 00 00    	jne    2370 <bigint_divide+0x7c0>
    2260:	48 89 d0             	mov    %rdx,%rax
    2263:	48 83 f8 01          	cmp    $0x1,%rax
    2267:	75 e7                	jne    2250 <bigint_divide+0x6a0>
    2269:	49 c7 07 01 00 00 00 	movq   $0x1,(%r15)
    2270:	e9 fd f9 ff ff       	jmpq   1c72 <bigint_divide+0xc2>
    2275:	48 83 ff 01          	cmp    $0x1,%rdi
    2279:	0f 86 f3 f9 ff ff    	jbe    1c72 <bigint_divide+0xc2>
    227f:	49 83 bc fd 58 0b 00 	cmpq   $0x0,0xb58(%r13,%rdi,8)
    2286:	00 00 
    2288:	48 8d 47 ff          	lea    -0x1(%rdi),%rax
    228c:	74 20                	je     22ae <bigint_divide+0x6fe>
    228e:	e9 df f9 ff ff       	jmpq   1c72 <bigint_divide+0xc2>
    2293:	0f 1f 44 00 00       	nopl   0x0(%rax,%rax,1)
    2298:	48 8d 50 ff          	lea    -0x1(%rax),%rdx
    229c:	49 83 bc d5 60 0b 00 	cmpq   $0x0,0xb60(%r13,%rdx,8)
    22a3:	00 00 
    22a5:	0f 85 b9 00 00 00    	jne    2364 <bigint_divide+0x7b4>
    22ab:	48 89 d0             	mov    %rdx,%rax
    22ae:	48 83 f8 01          	cmp    $0x1,%rax
    22b2:	75 e4                	jne    2298 <bigint_divide+0x6e8>
    22b4:	49 c7 85 40 0b 00 00 	movq   $0x1,0xb40(%r13)
    22bb:	01 00 00 00 
    22bf:	e9 ae f9 ff ff       	jmpq   1c72 <bigint_divide+0xc2>
    22c4:	48 83 ff 01          	cmp    $0x1,%rdi
    22c8:	0f 86 e1 fd ff ff    	jbe    20af <bigint_divide+0x4ff>
    22ce:	49 83 bc fe 18 0a 00 	cmpq   $0x0,0xa18(%r14,%rdi,8)
    22d5:	00 00 
    22d7:	48 8d 47 ff          	lea    -0x1(%rdi),%rax
    22db:	74 21                	je     22fe <bigint_divide+0x74e>
    22dd:	e9 cd fd ff ff       	jmpq   20af <bigint_divide+0x4ff>
    22e2:	66 0f 1f 44 00 00    	nopw   0x0(%rax,%rax,1)
    22e8:	48 8d 50 ff          	lea    -0x1(%rax),%rdx
    22ec:	49 83 bc d6 20 0a 00 	cmpq   $0x0,0xa20(%r14,%rdx,8)
    22f3:	00 00 
    22f5:	0f 85 ad fd ff ff    	jne    20a8 <bigint_divide+0x4f8>
    22fb:	48 89 d0             	mov    %rdx,%rax
    22fe:	48 83 f8 01          	cmp    $0x1,%rax
    2302:	75 e4                	jne    22e8 <bigint_divide+0x738>
    2304:	49 c7 86 00 0a 00 00 	movq   $0x1,0xa00(%r14)
    230b:	01 00 00 00 
    230f:	e9 9b fd ff ff       	jmpq   20af <bigint_divide+0x4ff>
    2314:	48 83 ff 01          	cmp    $0x1,%rdi
    2318:	0f 86 8b fe ff ff    	jbe    21a9 <bigint_divide+0x5f9>
    231e:	49 83 bc fe b8 0a 00 	cmpq   $0x0,0xab8(%r14,%rdi,8)
    2325:	00 00 
    2327:	48 8d 47 ff          	lea    -0x1(%rdi),%rax
    232b:	74 21                	je     234e <bigint_divide+0x79e>
    232d:	e9 77 fe ff ff       	jmpq   21a9 <bigint_divide+0x5f9>
    2332:	66 0f 1f 44 00 00    	nopw   0x0(%rax,%rax,1)
    2338:	48 8d 50 ff          	lea    -0x1(%rax),%rdx
    233c:	49 83 bc d6 c0 0a 00 	cmpq   $0x0,0xac0(%r14,%rdx,8)
    2343:	00 00 
    2345:	0f 85 57 fe ff ff    	jne    21a2 <bigint_divide+0x5f2>
    234b:	48 89 d0             	mov    %rdx,%rax
    234e:	48 83 f8 01          	cmp    $0x1,%rax
    2352:	75 e4                	jne    2338 <bigint_divide+0x788>
    2354:	49 c7 86 a0 0a 00 00 	movq   $0x1,0xaa0(%r14)
    235b:	01 00 00 00 
    235f:	e9 45 fe ff ff       	jmpq   21a9 <bigint_divide+0x5f9>
    2364:	49 89 85 40 0b 00 00 	mov    %rax,0xb40(%r13)
    236b:	e9 02 f9 ff ff       	jmpq   1c72 <bigint_divide+0xc2>
    2370:	49 89 07             	mov    %rax,(%r15)
    2373:	e9 fa f8 ff ff       	jmpq   1c72 <bigint_divide+0xc2>
    2378:	48 8b 35 00 00 00 00 	mov    0x0(%rip),%rsi        # 237f <bigint_divide+0x7cf>
    237f:	48 89 ef             	mov    %rbp,%rdi
    2382:	e8 00 00 00 00       	callq  2387 <bigint_divide+0x7d7>
    2387:	85 c0                	test   %eax,%eax
    2389:	4c 89 fe             	mov    %r15,%rsi
    238c:	74 05                	je     2393 <bigint_divide+0x7e3>
    238e:	48 8b 74 24 10       	mov    0x10(%rsp),%rsi
    2393:	48 8b 7c 24 28       	mov    0x28(%rsp),%rdi
    2398:	48 83 c4 38          	add    $0x38,%rsp
    239c:	5b                   	pop    %rbx
    239d:	5d                   	pop    %rbp
    239e:	41 5c                	pop    %r12
    23a0:	41 5d                	pop    %r13
    23a2:	41 5e                	pop    %r14
    23a4:	41 5f                	pop    %r15
    23a6:	e9 00 00 00 00       	jmpq   23ab <bigint_divide+0x7fb>
    23ab:	49 8b bd 40 0b 00 00 	mov    0xb40(%r13),%rdi
    23b2:	49 8b 04 24          	mov    (%r12),%rax
    23b6:	48 39 c7             	cmp    %rax,%rdi
    23b9:	0f 82 41 01 00 00    	jb     2500 <bigint_divide+0x950>
    23bf:	31 d2                	xor    %edx,%edx
    23c1:	31 c0                	xor    %eax,%eax
    23c3:	48 85 ff             	test   %rdi,%rdi
    23c6:	4d 8d 8d 60 0b 00 00 	lea    0xb60(%r13),%r9
    23cd:	75 38                	jne    2407 <bigint_divide+0x857>
    23cf:	e9 9e f8 ff ff       	jmpq   1c72 <bigint_divide+0xc2>
    23d4:	0f 1f 40 00          	nopl   0x0(%rax)
    23d8:	84 d2                	test   %dl,%dl
    23da:	0f 84 eb fc ff ff    	je     20cb <bigint_divide+0x51b>
    23e0:	49 8b 09             	mov    (%r9),%rcx
    23e3:	80 c2 ff             	add    $0xff,%dl
    23e6:	48 11 d9             	adc    %rbx,%rcx
    23e9:	0f 92 c2             	setb   %dl
    23ec:	49 89 09             	mov    %rcx,(%r9)
    23ef:	49 8b bd 40 0b 00 00 	mov    0xb40(%r13),%rdi
    23f6:	48 83 c0 01          	add    $0x1,%rax
    23fa:	49 83 c1 08          	add    $0x8,%r9
    23fe:	48 39 f8             	cmp    %rdi,%rax
    2401:	0f 83 ab 00 00 00    	jae    24b2 <bigint_divide+0x902>
    2407:	49 39 04 24          	cmp    %rax,(%r12)
    240b:	76 cb                	jbe    23d8 <bigint_divide+0x828>
    240d:	80 c2 ff             	add    $0xff,%dl
    2410:	49 8b 09             	mov    (%r9),%rcx
    2413:	49 13 4c c4 20       	adc    0x20(%r12,%rax,8),%rcx
    2418:	0f 92 c2             	setb   %dl
    241b:	49 89 09             	mov    %rcx,(%r9)
    241e:	eb cf                	jmp    23ef <bigint_divide+0x83f>
    2420:	49 8b 3f             	mov    (%r15),%rdi
    2423:	49 8b 04 24          	mov    (%r12),%rax
    2427:	48 39 c7             	cmp    %rax,%rdi
    242a:	0f 82 a5 00 00 00    	jb     24d5 <bigint_divide+0x925>
    2430:	31 d2                	xor    %edx,%edx
    2432:	31 c0                	xor    %eax,%eax
    2434:	48 85 ff             	test   %rdi,%rdi
    2437:	4d 8d 4f 20          	lea    0x20(%r15),%r9
    243b:	75 32                	jne    246f <bigint_divide+0x8bf>
    243d:	e9 30 f8 ff ff       	jmpq   1c72 <bigint_divide+0xc2>
    2442:	66 0f 1f 44 00 00    	nopw   0x0(%rax,%rax,1)
    2448:	84 d2                	test   %dl,%dl
    244a:	0f 84 71 fd ff ff    	je     21c1 <bigint_divide+0x611>
    2450:	49 8b 09             	mov    (%r9),%rcx
    2453:	80 c2 ff             	add    $0xff,%dl
    2456:	48 11 d9             	adc    %rbx,%rcx
    2459:	49 89 09             	mov    %rcx,(%r9)
    245c:	49 8b 3f             	mov    (%r15),%rdi
    245f:	0f 92 c2             	setb   %dl
    2462:	48 83 c0 01          	add    $0x1,%rax
    2466:	49 83 c1 08          	add    $0x8,%r9
    246a:	48 39 f8             	cmp    %rdi,%rax
    246d:	73 27                	jae    2496 <bigint_divide+0x8e6>
    246f:	49 39 04 24          	cmp    %rax,(%r12)
    2473:	76 d3                	jbe    2448 <bigint_divide+0x898>
    2475:	49 8b 09             	mov    (%r9),%rcx
    2478:	80 c2 ff             	add    $0xff,%dl
    247b:	49 13 4c c4 20       	adc    0x20(%r12,%rax,8),%rcx
    2480:	49 89 09             	mov    %rcx,(%r9)
    2483:	49 8b 3f             	mov    (%r15),%rdi
    2486:	0f 92 c2             	setb   %dl
    2489:	48 83 c0 01          	add    $0x1,%rax
    248d:	49 83 c1 08          	add    $0x8,%r9
    2491:	48 39 f8             	cmp    %rdi,%rax
    2494:	72 d9                	jb     246f <bigint_divide+0x8bf>
    2496:	84 d2                	test   %dl,%dl
    2498:	0f 84 23 fd ff ff    	je     21c1 <bigint_divide+0x611>
    249e:	48 83 c7 01          	add    $0x1,%rdi
    24a2:	0f b6 d2             	movzbl %dl,%edx
    24a5:	49 89 3f             	mov    %rdi,(%r15)
    24a8:	49 89 54 c7 20       	mov    %rdx,0x20(%r15,%rax,8)
    24ad:	e9 0f fd ff ff       	jmpq   21c1 <bigint_divide+0x611>
    24b2:	84 d2                	test   %dl,%dl
    24b4:	0f 84 11 fc ff ff    	je     20cb <bigint_divide+0x51b>
    24ba:	48 83 c7 01          	add    $0x1,%rdi
    24be:	0f b6 d2             	movzbl %dl,%edx
    24c1:	49 89 bd 40 0b 00 00 	mov    %rdi,0xb40(%r13)
    24c8:	49 89 94 c5 60 0b 00 	mov    %rdx,0xb60(%r13,%rax,8)
    24cf:	00 
    24d0:	e9 f6 fb ff ff       	jmpq   20cb <bigint_divide+0x51b>
    24d5:	48 8d 50 03          	lea    0x3(%rax),%rdx
    24d9:	48 8b 44 24 20       	mov    0x20(%rsp),%rax
    24de:	31 f6                	xor    %esi,%esi
    24e0:	48 83 e2 fc          	and    $0xfffffffffffffffc,%rdx
    24e4:	48 29 fa             	sub    %rdi,%rdx
    24e7:	48 8d 3c f8          	lea    (%rax,%rdi,8),%rdi
    24eb:	48 c1 e2 03          	shl    $0x3,%rdx
    24ef:	e8 00 00 00 00       	callq  24f4 <bigint_divide+0x944>
    24f4:	49 8b 3c 24          	mov    (%r12),%rdi
    24f8:	49 89 3f             	mov    %rdi,(%r15)
    24fb:	e9 30 ff ff ff       	jmpq   2430 <bigint_divide+0x880>
    2500:	48 8d 50 03          	lea    0x3(%rax),%rdx
    2504:	48 8b 44 24 18       	mov    0x18(%rsp),%rax
    2509:	31 f6                	xor    %esi,%esi
    250b:	48 83 e2 fc          	and    $0xfffffffffffffffc,%rdx
    250f:	48 29 fa             	sub    %rdi,%rdx
    2512:	48 8d 3c f8          	lea    (%rax,%rdi,8),%rdi
    2516:	48 c1 e2 03          	shl    $0x3,%rdx
    251a:	e8 00 00 00 00       	callq  251f <bigint_divide+0x96f>
    251f:	49 8b 3c 24          	mov    (%r12),%rdi
    2523:	49 89 bd 40 0b 00 00 	mov    %rdi,0xb40(%r13)
    252a:	e9 90 fe ff ff       	jmpq   23bf <bigint_divide+0x80f>
